ARM GAS  C:\Users\ryota\AppData\Local\Temp\ccqb3BvA.s 			page 1


   1              		.cpu cortex-m7
   2              		.eabi_attribute 28, 1
   3              		.eabi_attribute 20, 1
   4              		.eabi_attribute 21, 1
   5              		.eabi_attribute 23, 3
   6              		.eabi_attribute 24, 1
   7              		.eabi_attribute 25, 1
   8              		.eabi_attribute 26, 1
   9              		.eabi_attribute 30, 2
  10              		.eabi_attribute 34, 1
  11              		.eabi_attribute 18, 4
  12              		.file	"master_level.cpp"
  13              		.text
  14              	.Ltext0:
  15              		.cfi_sections	.debug_frame
  16              		.section	.text._ZN5daisy9DaisySeedD2Ev,"axG",%progbits,_ZN5daisy9DaisySeedD5Ev,comdat
  17              		.align	1
  18              		.p2align 2,,3
  19              		.weak	_ZN5daisy9DaisySeedD2Ev
  20              		.arch armv7e-m
  21              		.syntax unified
  22              		.thumb
  23              		.thumb_func
  24              		.fpu fpv5-d16
  26              	_ZN5daisy9DaisySeedD2Ev:
  27              	.LVL0:
  28              	.LFB2555:
  29              		.file 1 "../../libDaisy//src/daisy_seed.h"
   1:../../libDaisy//src/daisy_seed.h **** #pragma once
   2:../../libDaisy//src/daisy_seed.h **** #ifndef DSY_SEED_H
   3:../../libDaisy//src/daisy_seed.h **** #define DSY_SEED_H
   4:../../libDaisy//src/daisy_seed.h **** 
   5:../../libDaisy//src/daisy_seed.h **** #include "daisy.h"
   6:../../libDaisy//src/daisy_seed.h **** 
   7:../../libDaisy//src/daisy_seed.h **** //Uncomment this out if you're still using the rev2 hardware
   8:../../libDaisy//src/daisy_seed.h **** //#define SEED_REV2
   9:../../libDaisy//src/daisy_seed.h **** 
  10:../../libDaisy//src/daisy_seed.h **** namespace daisy
  11:../../libDaisy//src/daisy_seed.h **** {
  12:../../libDaisy//src/daisy_seed.h **** /**
  13:../../libDaisy//src/daisy_seed.h ****    @brief This is the higher-level interface for the Daisy board. \n 
  14:../../libDaisy//src/daisy_seed.h ****     All basic peripheral configuration/initialization is setup here. \n
  15:../../libDaisy//src/daisy_seed.h **** 
  16:../../libDaisy//src/daisy_seed.h ****    @ingroup boards
  17:../../libDaisy//src/daisy_seed.h **** */
  18:../../libDaisy//src/daisy_seed.h **** class DaisySeed
  19:../../libDaisy//src/daisy_seed.h **** {
  20:../../libDaisy//src/daisy_seed.h ****   public:
  21:../../libDaisy//src/daisy_seed.h ****     DaisySeed() {}
  22:../../libDaisy//src/daisy_seed.h ****     ~DaisySeed() {}
  30              		.loc 1 22 5 view -0
  31              		.cfi_startproc
  32              		@ args = 0, pretend = 0, frame = 0
  33              		@ frame_needed = 0, uses_anonymous_args = 0
  34              		@ link register save eliminated.
  35              	.LBB102:
  36              	.LBI102:
ARM GAS  C:\Users\ryota\AppData\Local\Temp\ccqb3BvA.s 			page 2


  37              		.file 2 "../../libDaisy//src/sys/system.h"
   1:../../libDaisy//src/sys/system.h **** #ifndef DSY_SYSTEM_H
   2:../../libDaisy//src/sys/system.h **** #define DSY_SYSTEM_H
   3:../../libDaisy//src/sys/system.h **** 
   4:../../libDaisy//src/sys/system.h **** #ifndef UNIT_TEST // for unit tests, a dummy implementation is provided below
   5:../../libDaisy//src/sys/system.h **** 
   6:../../libDaisy//src/sys/system.h **** #include <cstdint>
   7:../../libDaisy//src/sys/system.h **** #include "per/tim.h"
   8:../../libDaisy//src/sys/system.h **** 
   9:../../libDaisy//src/sys/system.h **** namespace daisy
  10:../../libDaisy//src/sys/system.h **** {
  11:../../libDaisy//src/sys/system.h **** /** A handle for interacting with the Core System.
  12:../../libDaisy//src/sys/system.h ****  ** This includes the Clock tree, MPU, global DMA initialization,
  13:../../libDaisy//src/sys/system.h ****  ** cache handling, and any other necessary global initiailzation
  14:../../libDaisy//src/sys/system.h ****  **
  15:../../libDaisy//src/sys/system.h ****  ** @author shensley
  16:../../libDaisy//src/sys/system.h ****  ** @ingroup system
  17:../../libDaisy//src/sys/system.h ****  */
  18:../../libDaisy//src/sys/system.h **** class System
  19:../../libDaisy//src/sys/system.h **** {
  20:../../libDaisy//src/sys/system.h ****   public:
  21:../../libDaisy//src/sys/system.h ****     /** Contains settings for initializing the System */
  22:../../libDaisy//src/sys/system.h ****     struct Config
  23:../../libDaisy//src/sys/system.h ****     {
  24:../../libDaisy//src/sys/system.h ****         /** Specifies the system clock frequency that feeds APB/AHB clocks, etc. */
  25:../../libDaisy//src/sys/system.h ****         enum class SysClkFreq
  26:../../libDaisy//src/sys/system.h ****         {
  27:../../libDaisy//src/sys/system.h ****             FREQ_400MHZ,
  28:../../libDaisy//src/sys/system.h ****             FREQ_480MHZ,
  29:../../libDaisy//src/sys/system.h ****         };
  30:../../libDaisy//src/sys/system.h **** 
  31:../../libDaisy//src/sys/system.h ****         /** Method to call on the struct to set to defaults
  32:../../libDaisy//src/sys/system.h ****          ** CPU Freq set to 400MHz
  33:../../libDaisy//src/sys/system.h ****          ** Cache Enabled
  34:../../libDaisy//src/sys/system.h ****          ** */
  35:../../libDaisy//src/sys/system.h ****         void Defaults()
  36:../../libDaisy//src/sys/system.h ****         {
  37:../../libDaisy//src/sys/system.h ****             cpu_freq    = SysClkFreq::FREQ_400MHZ;
  38:../../libDaisy//src/sys/system.h ****             use_dcache  = true;
  39:../../libDaisy//src/sys/system.h ****             use_icache  = true;
  40:../../libDaisy//src/sys/system.h ****             skip_clocks = false;
  41:../../libDaisy//src/sys/system.h ****         }
  42:../../libDaisy//src/sys/system.h **** 
  43:../../libDaisy//src/sys/system.h ****         /** Method to call on the struct to set to boost mode:
  44:../../libDaisy//src/sys/system.h ****          ** CPU Freq set to 480MHz
  45:../../libDaisy//src/sys/system.h ****          ** Cache Enabled
  46:../../libDaisy//src/sys/system.h ****          ** */
  47:../../libDaisy//src/sys/system.h ****         void Boost()
  48:../../libDaisy//src/sys/system.h ****         {
  49:../../libDaisy//src/sys/system.h ****             cpu_freq    = SysClkFreq::FREQ_480MHZ;
  50:../../libDaisy//src/sys/system.h ****             use_dcache  = true;
  51:../../libDaisy//src/sys/system.h ****             use_icache  = true;
  52:../../libDaisy//src/sys/system.h ****             skip_clocks = false;
  53:../../libDaisy//src/sys/system.h ****         }
  54:../../libDaisy//src/sys/system.h **** 
  55:../../libDaisy//src/sys/system.h ****         SysClkFreq cpu_freq;
  56:../../libDaisy//src/sys/system.h ****         bool       use_dcache;
ARM GAS  C:\Users\ryota\AppData\Local\Temp\ccqb3BvA.s 			page 3


  57:../../libDaisy//src/sys/system.h ****         bool       use_icache;
  58:../../libDaisy//src/sys/system.h ****         bool       skip_clocks;
  59:../../libDaisy//src/sys/system.h ****     };
  60:../../libDaisy//src/sys/system.h **** 
  61:../../libDaisy//src/sys/system.h ****     /** Describes the different regions of memory available to the Daisy */
  62:../../libDaisy//src/sys/system.h ****     enum MemoryRegion
  63:../../libDaisy//src/sys/system.h ****     {
  64:../../libDaisy//src/sys/system.h ****         INTERNAL_FLASH = 0,
  65:../../libDaisy//src/sys/system.h ****         ITCMRAM,
  66:../../libDaisy//src/sys/system.h ****         DTCMRAM,
  67:../../libDaisy//src/sys/system.h ****         SRAM_D1,
  68:../../libDaisy//src/sys/system.h ****         SRAM_D2,
  69:../../libDaisy//src/sys/system.h ****         SRAM_D3,
  70:../../libDaisy//src/sys/system.h ****         SDRAM,
  71:../../libDaisy//src/sys/system.h ****         QSPI,
  72:../../libDaisy//src/sys/system.h ****         INVALID_ADDRESS,
  73:../../libDaisy//src/sys/system.h ****     };
  74:../../libDaisy//src/sys/system.h **** 
  75:../../libDaisy//src/sys/system.h ****     /** Bootloader struct for controlling bootloading parameters */
  76:../../libDaisy//src/sys/system.h ****     struct BootInfo
  77:../../libDaisy//src/sys/system.h ****     {
  78:../../libDaisy//src/sys/system.h ****         enum class Type : uint32_t
  79:../../libDaisy//src/sys/system.h ****         {
  80:../../libDaisy//src/sys/system.h ****             INVALID      = 0x00000000,
  81:../../libDaisy//src/sys/system.h ****             JUMP         = 0xDEADBEEF,
  82:../../libDaisy//src/sys/system.h ****             SKIP_TIMEOUT = 0x5AFEB007,
  83:../../libDaisy//src/sys/system.h ****             INF_TIMEOUT  = 0xB0074EFA,
  84:../../libDaisy//src/sys/system.h ****         } status;
  85:../../libDaisy//src/sys/system.h ****         uint32_t data;
  86:../../libDaisy//src/sys/system.h ****         enum class Version : uint32_t
  87:../../libDaisy//src/sys/system.h ****         {
  88:../../libDaisy//src/sys/system.h ****             LT_v6_0 = 0, // Less than v6.0
  89:../../libDaisy//src/sys/system.h ****             NONE,        // No bootloader present
  90:../../libDaisy//src/sys/system.h ****             v6_0,        // v6.0
  91:../../libDaisy//src/sys/system.h ****             v6_1,        // v6.1 or greater
  92:../../libDaisy//src/sys/system.h ****             LAST
  93:../../libDaisy//src/sys/system.h ****         } version;
  94:../../libDaisy//src/sys/system.h ****     };
  95:../../libDaisy//src/sys/system.h **** 
  96:../../libDaisy//src/sys/system.h ****     System() {}
  97:../../libDaisy//src/sys/system.h ****     ~System() {}
  38              		.loc 2 97 5 view .LVU1
  39              		.loc 2 97 5 is_stmt 0 view .LVU2
  40              	.LBE102:
  41              	.LBB103:
  42              	.LBI103:
  43              		.file 3 "../../libDaisy//src/hid/usb.h"
   1:../../libDaisy//src/hid/usb.h **** #pragma once
   2:../../libDaisy//src/hid/usb.h **** #ifndef DSY_HID_USB_H
   3:../../libDaisy//src/hid/usb.h **** #define DSY_HID_USB_H
   4:../../libDaisy//src/hid/usb.h **** #include <stdint.h>
   5:../../libDaisy//src/hid/usb.h **** #include <stdlib.h>
   6:../../libDaisy//src/hid/usb.h **** 
   7:../../libDaisy//src/hid/usb.h **** namespace daisy
   8:../../libDaisy//src/hid/usb.h **** /** @addtogroup human_interface
   9:../../libDaisy//src/hid/usb.h ****     @{
  10:../../libDaisy//src/hid/usb.h **** */
ARM GAS  C:\Users\ryota\AppData\Local\Temp\ccqb3BvA.s 			page 4


  11:../../libDaisy//src/hid/usb.h **** 
  12:../../libDaisy//src/hid/usb.h **** {
  13:../../libDaisy//src/hid/usb.h **** /** 
  14:../../libDaisy//src/hid/usb.h ****     @brief Interface for initializing and using the USB Peripherals on the daisy
  15:../../libDaisy//src/hid/usb.h ****     @author Stephen Hensley
  16:../../libDaisy//src/hid/usb.h ****     @date December 2019
  17:../../libDaisy//src/hid/usb.h **** */
  18:../../libDaisy//src/hid/usb.h **** class UsbHandle
  19:../../libDaisy//src/hid/usb.h **** {
  20:../../libDaisy//src/hid/usb.h ****   public:
  21:../../libDaisy//src/hid/usb.h ****     /** Return values for USBHandle Functions */
  22:../../libDaisy//src/hid/usb.h ****     enum class Result
  23:../../libDaisy//src/hid/usb.h ****     {
  24:../../libDaisy//src/hid/usb.h ****         OK,
  25:../../libDaisy//src/hid/usb.h ****         ERR,
  26:../../libDaisy//src/hid/usb.h ****     };
  27:../../libDaisy//src/hid/usb.h **** 
  28:../../libDaisy//src/hid/usb.h ****     /** Specified which of the two USB Peripherals to initialize. */
  29:../../libDaisy//src/hid/usb.h ****     enum UsbPeriph
  30:../../libDaisy//src/hid/usb.h ****     {
  31:../../libDaisy//src/hid/usb.h ****         FS_INTERNAL, /**< Internal pin */
  32:../../libDaisy//src/hid/usb.h ****         FS_EXTERNAL, /**< FS External D+ pin is Pin 38 (GPIO32). FS External D- pin is Pin 37 (GPIO
  33:../../libDaisy//src/hid/usb.h ****         FS_BOTH,     /**< Both */
  34:../../libDaisy//src/hid/usb.h ****     };
  35:../../libDaisy//src/hid/usb.h **** 
  36:../../libDaisy//src/hid/usb.h **** 
  37:../../libDaisy//src/hid/usb.h ****     /** Function called upon reception of a buffer */
  38:../../libDaisy//src/hid/usb.h ****     typedef void (*ReceiveCallback)(uint8_t* buff, uint32_t* len);
  39:../../libDaisy//src/hid/usb.h **** 
  40:../../libDaisy//src/hid/usb.h ****     UsbHandle() {}
  41:../../libDaisy//src/hid/usb.h **** 
  42:../../libDaisy//src/hid/usb.h ****     ~UsbHandle() {}
  44              		.loc 3 42 5 is_stmt 1 view .LVU3
  45              		.loc 3 42 5 is_stmt 0 view .LVU4
  46              	.LBE103:
  47              	.LBB104:
  48              	.LBI104:
  49              		.file 4 "../../libDaisy//src/per/adc.h"
   1:../../libDaisy//src/per/adc.h **** #pragma once
   2:../../libDaisy//src/per/adc.h **** #ifndef DSY_ADC_H
   3:../../libDaisy//src/per/adc.h **** #define DSY_ADC_H /**< Macro */
   4:../../libDaisy//src/per/adc.h **** #include <stdint.h>
   5:../../libDaisy//src/per/adc.h **** #include <stdlib.h>
   6:../../libDaisy//src/per/adc.h **** #include "daisy_core.h"
   7:../../libDaisy//src/per/adc.h **** #include "per/gpio.h"
   8:../../libDaisy//src/per/adc.h **** 
   9:../../libDaisy//src/per/adc.h **** #define DSY_ADC_MAX_CHANNELS 16 /**< Maximum number of ADC channels */
  10:../../libDaisy//src/per/adc.h **** 
  11:../../libDaisy//src/per/adc.h **** namespace daisy
  12:../../libDaisy//src/per/adc.h **** {
  13:../../libDaisy//src/per/adc.h **** /** @addtogroup per_analog
  14:../../libDaisy//src/per/adc.h ****     @{
  15:../../libDaisy//src/per/adc.h **** */
  16:../../libDaisy//src/per/adc.h **** 
  17:../../libDaisy//src/per/adc.h **** /* While there may not be many configuration options here,
  18:../../libDaisy//src/per/adc.h **** using a struct like this allows us to add more configuration
  19:../../libDaisy//src/per/adc.h **** later without breaking existing functionality.
ARM GAS  C:\Users\ryota\AppData\Local\Temp\ccqb3BvA.s 			page 5


  20:../../libDaisy//src/per/adc.h **** */
  21:../../libDaisy//src/per/adc.h **** 
  22:../../libDaisy//src/per/adc.h **** /** @brief   Configuration Structure for an ADC Channel 
  23:../../libDaisy//src/per/adc.h ****  *  @details This can be used to configure a a single input, 
  24:../../libDaisy//src/per/adc.h ****  *           or a multiplexed input, allowing up to 8 inputs on 
  25:../../libDaisy//src/per/adc.h ****  *           one channel.
  26:../../libDaisy//src/per/adc.h ****  *  @note    Sharing data lines to multiple muxes _is_ possible, but
  27:../../libDaisy//src/per/adc.h ****  *           each channel sharing data lines must be set to the maximum
  28:../../libDaisy//src/per/adc.h ****  *           number of channels, even if some multiplexers have fewer
  29:../../libDaisy//src/per/adc.h ****  *           inputs connected.
  30:../../libDaisy//src/per/adc.h **** */
  31:../../libDaisy//src/per/adc.h **** struct AdcChannelConfig
  32:../../libDaisy//src/per/adc.h **** {
  33:../../libDaisy//src/per/adc.h ****     /** Which pin to use for multiplexing */
  34:../../libDaisy//src/per/adc.h ****     enum MuxPin
  35:../../libDaisy//src/per/adc.h ****     {
  36:../../libDaisy//src/per/adc.h ****         MUX_SEL_0,    /**< & */
  37:../../libDaisy//src/per/adc.h ****         MUX_SEL_1,    /**< & */
  38:../../libDaisy//src/per/adc.h ****         MUX_SEL_2,    /**< & */
  39:../../libDaisy//src/per/adc.h ****         MUX_SEL_LAST, /**< & */
  40:../../libDaisy//src/per/adc.h ****     };
  41:../../libDaisy//src/per/adc.h **** 
  42:../../libDaisy//src/per/adc.h ****     /** \brief per channel conversion speed added to fixed time based on bitdepth, etc. */
  43:../../libDaisy//src/per/adc.h ****     enum ConversionSpeed
  44:../../libDaisy//src/per/adc.h ****     {
  45:../../libDaisy//src/per/adc.h ****         SPEED_1CYCLES_5,
  46:../../libDaisy//src/per/adc.h ****         SPEED_2CYCLES_5,
  47:../../libDaisy//src/per/adc.h ****         SPEED_8CYCLES_5,
  48:../../libDaisy//src/per/adc.h ****         SPEED_16CYCLES_5,
  49:../../libDaisy//src/per/adc.h ****         SPEED_32CYCLES_5,
  50:../../libDaisy//src/per/adc.h ****         SPEED_64CYCLES_5,
  51:../../libDaisy//src/per/adc.h ****         SPEED_387CYCLES_5,
  52:../../libDaisy//src/per/adc.h ****         SPEED_810CYCLES_5,
  53:../../libDaisy//src/per/adc.h ****     };
  54:../../libDaisy//src/per/adc.h **** 
  55:../../libDaisy//src/per/adc.h ****     /** Initializes a single ADC pin as an ADC. 
  56:../../libDaisy//src/per/adc.h ****     \param pin Pin to init.
  57:../../libDaisy//src/per/adc.h ****     \param speed conversion speed for this pin defaults to 8.5 cycles
  58:../../libDaisy//src/per/adc.h ****      */
  59:../../libDaisy//src/per/adc.h ****     void InitSingle(dsy_gpio_pin pin, ConversionSpeed speed = SPEED_8CYCLES_5);
  60:../../libDaisy//src/per/adc.h **** 
  61:../../libDaisy//src/per/adc.h ****     /** 
  62:../../libDaisy//src/per/adc.h ****     Initializes a single ADC pin as a Multiplexed ADC.
  63:../../libDaisy//src/per/adc.h ****     Requires a CD405X Multiplexer connected to the pin.
  64:../../libDaisy//src/per/adc.h ****     You only need to supply the mux pins that are required,
  65:../../libDaisy//src/per/adc.h ****     e.g. a 4052 mux would only require mux_0 and mux_1.
  66:../../libDaisy//src/per/adc.h ****     Internal Callbacks handle the pin addressing.
  67:../../libDaisy//src/per/adc.h ****     \param adc_pin &
  68:../../libDaisy//src/per/adc.h ****     \param mux_channels must be 1-8
  69:../../libDaisy//src/per/adc.h ****     \param mux_0 First mux pin
  70:../../libDaisy//src/per/adc.h ****     \param mux_1 Second mux pin
  71:../../libDaisy//src/per/adc.h ****     \param mux_2 Third mux pin
  72:../../libDaisy//src/per/adc.h ****     \param speed conversion speed for this pin defaults to 8.5 cycles
  73:../../libDaisy//src/per/adc.h ****     */
  74:../../libDaisy//src/per/adc.h ****     void InitMux(dsy_gpio_pin    adc_pin,
  75:../../libDaisy//src/per/adc.h ****                  size_t          mux_channels,
  76:../../libDaisy//src/per/adc.h ****                  dsy_gpio_pin    mux_0,
ARM GAS  C:\Users\ryota\AppData\Local\Temp\ccqb3BvA.s 			page 6


  77:../../libDaisy//src/per/adc.h ****                  dsy_gpio_pin    mux_1 = {DSY_GPIOX, 0},
  78:../../libDaisy//src/per/adc.h ****                  dsy_gpio_pin    mux_2 = {DSY_GPIOX, 0},
  79:../../libDaisy//src/per/adc.h ****                  ConversionSpeed speed = SPEED_8CYCLES_5);
  80:../../libDaisy//src/per/adc.h **** 
  81:../../libDaisy//src/per/adc.h ****     dsy_gpio        pin_;                   /**< & */
  82:../../libDaisy//src/per/adc.h ****     dsy_gpio        mux_pin_[MUX_SEL_LAST]; /**< & */
  83:../../libDaisy//src/per/adc.h ****     uint8_t         mux_channels_;          /**< & */
  84:../../libDaisy//src/per/adc.h ****     ConversionSpeed speed_;
  85:../../libDaisy//src/per/adc.h **** };
  86:../../libDaisy//src/per/adc.h **** 
  87:../../libDaisy//src/per/adc.h **** /**
  88:../../libDaisy//src/per/adc.h ****    @brief Handler for analog to digital conversion
  89:../../libDaisy//src/per/adc.h **** */
  90:../../libDaisy//src/per/adc.h **** class AdcHandle
  91:../../libDaisy//src/per/adc.h **** {
  92:../../libDaisy//src/per/adc.h ****   public:
  93:../../libDaisy//src/per/adc.h ****     /** Supported oversampling amounts */
  94:../../libDaisy//src/per/adc.h ****     enum OverSampling
  95:../../libDaisy//src/per/adc.h ****     {
  96:../../libDaisy//src/per/adc.h ****         OVS_NONE, /**< & */
  97:../../libDaisy//src/per/adc.h ****         OVS_4,    /**< & */
  98:../../libDaisy//src/per/adc.h ****         OVS_8,    /**< & */
  99:../../libDaisy//src/per/adc.h ****         OVS_16,   /**< & */
 100:../../libDaisy//src/per/adc.h ****         OVS_32,   /**< & */
 101:../../libDaisy//src/per/adc.h ****         OVS_64,   /**< & */
 102:../../libDaisy//src/per/adc.h ****         OVS_128,  /**< & */
 103:../../libDaisy//src/per/adc.h ****         OVS_256,  /**< & */
 104:../../libDaisy//src/per/adc.h ****         OVS_512,  /**< & */
 105:../../libDaisy//src/per/adc.h ****         OVS_1024, /**< & */
 106:../../libDaisy//src/per/adc.h ****         OVS_LAST, /**< & */
 107:../../libDaisy//src/per/adc.h ****     };
 108:../../libDaisy//src/per/adc.h **** 
 109:../../libDaisy//src/per/adc.h ****     AdcHandle() {}
 110:../../libDaisy//src/per/adc.h ****     ~AdcHandle() {}
  50              		.loc 4 110 5 is_stmt 1 view .LVU5
  51              		.loc 4 110 5 is_stmt 0 view .LVU6
  52              	.LBE104:
  53              	.LBB105:
  54              	.LBI105:
  55              		.file 5 "../../libDaisy//src/hid/audio.h"
   1:../../libDaisy//src/hid/audio.h **** #ifndef DSY_AUDIO_H
   2:../../libDaisy//src/hid/audio.h **** #define DSY_AUDIO_H /**< & */
   3:../../libDaisy//src/hid/audio.h **** 
   4:../../libDaisy//src/hid/audio.h **** #include "per/sai.h"
   5:../../libDaisy//src/hid/audio.h **** 
   6:../../libDaisy//src/hid/audio.h **** namespace daisy
   7:../../libDaisy//src/hid/audio.h **** {
   8:../../libDaisy//src/hid/audio.h **** /** @brief Audio Engine Handle
   9:../../libDaisy//src/hid/audio.h ****  *  @ingroup audio 
  10:../../libDaisy//src/hid/audio.h ****  *  @details This class allows for higher level access to an audio engine.
  11:../../libDaisy//src/hid/audio.h ****  *           If you're using a SOM like the DaisySeed or DaisyPatchSM (or any 
  12:../../libDaisy//src/hid/audio.h ****  *            board that includes one of those objects) then the intialization
  13:../../libDaisy//src/hid/audio.h ****  *            is already taken  care of.
  14:../../libDaisy//src/hid/audio.h ****  *           If you're setting up your own custom hardware, or need to make changes
  15:../../libDaisy//src/hid/audio.h ****  *           you will have to take the following steps:
  16:../../libDaisy//src/hid/audio.h ****  *             1. Create and Initialize an SaiHandle or two depending on your requirements
  17:../../libDaisy//src/hid/audio.h ****  *             2. Initialize the Audio Handle with the desired settings and the Initialized SaiHand
ARM GAS  C:\Users\ryota\AppData\Local\Temp\ccqb3BvA.s 			page 7


  18:../../libDaisy//src/hid/audio.h ****  *             3. If the connected codec requires special configuration or initialization, do so
  19:../../libDaisy//src/hid/audio.h ****  *             4. Write a callback method using either the AudioCallback or the InterleavingAudioCa
  20:../../libDaisy//src/hid/audio.h ****  *             5. Start the Audio using one of the StartAudio function
  21:../../libDaisy//src/hid/audio.h ****  */
  22:../../libDaisy//src/hid/audio.h **** class AudioHandle
  23:../../libDaisy//src/hid/audio.h **** {
  24:../../libDaisy//src/hid/audio.h ****   public:
  25:../../libDaisy//src/hid/audio.h ****     /** Manually configurable details about the Audio Engine */
  26:../../libDaisy//src/hid/audio.h ****     /** TODO: Figure out how to get samplerate in here. */
  27:../../libDaisy//src/hid/audio.h ****     struct Config
  28:../../libDaisy//src/hid/audio.h ****     {
  29:../../libDaisy//src/hid/audio.h ****         /** number of samples to process per callback */
  30:../../libDaisy//src/hid/audio.h ****         size_t blocksize;
  31:../../libDaisy//src/hid/audio.h **** 
  32:../../libDaisy//src/hid/audio.h ****         /**< Sample rate of audio */
  33:../../libDaisy//src/hid/audio.h ****         SaiHandle::Config::SampleRate samplerate;
  34:../../libDaisy//src/hid/audio.h **** 
  35:../../libDaisy//src/hid/audio.h ****         /** factor for adjustment before and after callback for hardware that may have extra headro
  36:../../libDaisy//src/hid/audio.h ****         float postgain;
  37:../../libDaisy//src/hid/audio.h **** 
  38:../../libDaisy//src/hid/audio.h ****         /** factor for additional one-sided compensation to audio path for hardware that may
  39:../../libDaisy//src/hid/audio.h ****          *  have unequal input/output ranges
  40:../../libDaisy//src/hid/audio.h ****          */
  41:../../libDaisy//src/hid/audio.h ****         float output_compensation;
  42:../../libDaisy//src/hid/audio.h **** 
  43:../../libDaisy//src/hid/audio.h ****         /** Sets default values for config struct */
  44:../../libDaisy//src/hid/audio.h ****         Config()
  45:../../libDaisy//src/hid/audio.h ****         : blocksize(48),
  46:../../libDaisy//src/hid/audio.h ****           samplerate(SaiHandle::Config::SampleRate::SAI_48KHZ),
  47:../../libDaisy//src/hid/audio.h ****           postgain(1.f),
  48:../../libDaisy//src/hid/audio.h ****           output_compensation(1.f)
  49:../../libDaisy//src/hid/audio.h ****         {
  50:../../libDaisy//src/hid/audio.h ****         }
  51:../../libDaisy//src/hid/audio.h ****     };
  52:../../libDaisy//src/hid/audio.h **** 
  53:../../libDaisy//src/hid/audio.h ****     enum class Result
  54:../../libDaisy//src/hid/audio.h ****     {
  55:../../libDaisy//src/hid/audio.h ****         OK,
  56:../../libDaisy//src/hid/audio.h ****         ERR,
  57:../../libDaisy//src/hid/audio.h ****     };
  58:../../libDaisy//src/hid/audio.h **** 
  59:../../libDaisy//src/hid/audio.h ****     /** Non-Interleaving input buffer
  60:../../libDaisy//src/hid/audio.h ****      * Buffer arranged by float[chn][sample] 
  61:../../libDaisy//src/hid/audio.h ****      * const so that the user can't modify the input
  62:../../libDaisy//src/hid/audio.h ****      */
  63:../../libDaisy//src/hid/audio.h ****     typedef const float* const* InputBuffer;
  64:../../libDaisy//src/hid/audio.h **** 
  65:../../libDaisy//src/hid/audio.h ****     /** Non-Interleaving output buffer
  66:../../libDaisy//src/hid/audio.h ****      * Arranged by float[chn][sample] 
  67:../../libDaisy//src/hid/audio.h ****      */
  68:../../libDaisy//src/hid/audio.h ****     typedef float** OutputBuffer;
  69:../../libDaisy//src/hid/audio.h **** 
  70:../../libDaisy//src/hid/audio.h ****     /** Type for a Non-Interleaving audio callback 
  71:../../libDaisy//src/hid/audio.h ****      * Non-Interleaving audio callbacks in daisy will be of this type
  72:../../libDaisy//src/hid/audio.h ****      */
  73:../../libDaisy//src/hid/audio.h ****     typedef void (*AudioCallback)(InputBuffer  in,
  74:../../libDaisy//src/hid/audio.h ****                                   OutputBuffer out,
ARM GAS  C:\Users\ryota\AppData\Local\Temp\ccqb3BvA.s 			page 8


  75:../../libDaisy//src/hid/audio.h ****                                   size_t       size);
  76:../../libDaisy//src/hid/audio.h **** 
  77:../../libDaisy//src/hid/audio.h ****     /** Interleaving Input buffer
  78:../../libDaisy//src/hid/audio.h ****      ** audio is prepared as { L0, R0, L1, R1, . . . LN, RN }]
  79:../../libDaisy//src/hid/audio.h ****      ** this is const, as the user shouldn't modify it
  80:../../libDaisy//src/hid/audio.h ****     */
  81:../../libDaisy//src/hid/audio.h ****     typedef const float* InterleavingInputBuffer;
  82:../../libDaisy//src/hid/audio.h **** 
  83:../../libDaisy//src/hid/audio.h ****     /** Interleaving Output buffer 
  84:../../libDaisy//src/hid/audio.h ****      ** audio is prepared as { L0, R0, L1, R1, . . . LN, RN }
  85:../../libDaisy//src/hid/audio.h ****     */
  86:../../libDaisy//src/hid/audio.h ****     typedef float* InterleavingOutputBuffer;
  87:../../libDaisy//src/hid/audio.h **** 
  88:../../libDaisy//src/hid/audio.h ****     /** Interleaving Audio Callback 
  89:../../libDaisy//src/hid/audio.h ****      * Interleaving audio callbacks in daisy must be of this type
  90:../../libDaisy//src/hid/audio.h ****      */
  91:../../libDaisy//src/hid/audio.h ****     typedef void (*InterleavingAudioCallback)(InterleavingInputBuffer  in,
  92:../../libDaisy//src/hid/audio.h ****                                               InterleavingOutputBuffer out,
  93:../../libDaisy//src/hid/audio.h ****                                               size_t                   size);
  94:../../libDaisy//src/hid/audio.h **** 
  95:../../libDaisy//src/hid/audio.h ****     AudioHandle() : pimpl_(nullptr) {}
  96:../../libDaisy//src/hid/audio.h ****     ~AudioHandle() {}
  56              		.loc 5 96 5 is_stmt 1 view .LVU7
  57              		.loc 5 96 5 is_stmt 0 view .LVU8
  58              	.LBE105:
  59              		.loc 1 22 19 view .LVU9
  60 0000 7047     		bx	lr
  61              		.cfi_endproc
  62              	.LFE2555:
  64              		.weak	_ZN5daisy9DaisySeedD1Ev
  65              		.thumb_set _ZN5daisy9DaisySeedD1Ev,_ZN5daisy9DaisySeedD2Ev
  66 0002 00BF     		.section	.text._Z10MyCallbackPKPKfPPfj,"ax",%progbits
  67              		.align	1
  68              		.p2align 2,,3
  69              		.global	_Z10MyCallbackPKPKfPPfj
  70              		.syntax unified
  71              		.thumb
  72              		.thumb_func
  73              		.fpu fpv5-d16
  75              	_Z10MyCallbackPKPKfPPfj:
  76              	.LVL1:
  77              	.LFB5443:
  78              		.file 6 "master_level.cpp"
   1:master_level.cpp **** #include "daisy_seed.h"
   2:master_level.cpp **** #include "daisysp.h"
   3:master_level.cpp **** #include "library/fft_library.h"
   4:master_level.cpp **** #include "library/serial_library.h"
   5:master_level.cpp **** 
   6:master_level.cpp **** using namespace daisy;
   7:master_level.cpp **** using namespace daisysp;
   8:master_level.cpp **** using namespace daisy::seed;
   9:master_level.cpp **** 
  10:master_level.cpp **** ////////////////////////////// Competition Configuration (WE CAN CHANGE)///////////////////////////
  11:master_level.cpp **** // // Hydrophone normalization (manually calibrate)
  12:master_level.cpp **** // const float hydrophone_0_max = 4.0f;
  13:master_level.cpp **** // const float hydrophone_1_max = 4.0f;
  14:master_level.cpp **** 
ARM GAS  C:\Users\ryota\AppData\Local\Temp\ccqb3BvA.s 			page 9


  15:master_level.cpp **** // // FFT
  16:master_level.cpp **** // constexpr size_t kFftSize = 64;             // Higher = better frequency resolution
  17:master_level.cpp **** // constexpr size_t kBlockSize = 64;             // Block size for audio processing
  18:master_level.cpp **** 
  19:master_level.cpp **** // // RMS
  20:master_level.cpp **** // const float multiplier = 100;                  // Amplification of signal (per sample)
  21:master_level.cpp **** 
  22:master_level.cpp **** // // Frequency Detection
  23:master_level.cpp **** // const float targetFrequency = 35000.0f;        // Target frequency to detect
  24:master_level.cpp **** // const float frequencyTolerance = 0.01f;       // Tolerance for frequency detection
  25:master_level.cpp **** 
  26:master_level.cpp **** // // Printing
  27:master_level.cpp **** // constexpr int kPrintIntervalMs = 1;         // Print interval
  28:master_level.cpp **** 
  29:master_level.cpp **** 
  30:master_level.cpp **** 
  31:master_level.cpp **** 
  32:master_level.cpp **** ////////////////////////////// Testing Configuration (WE CAN CHANGE)///////////////////////////////
  33:master_level.cpp **** // Hydrophone normalization (manually calibrate)
  34:master_level.cpp **** const float hydrophone_0_max = 4.0f;
  35:master_level.cpp **** const float hydrophone_1_max = 4.0f;
  36:master_level.cpp **** 
  37:master_level.cpp **** // FFT
  38:master_level.cpp **** constexpr size_t kFftSize = 64;             // Higher = better frequency resolution
  39:master_level.cpp **** constexpr size_t kBlockSize = 64;             // Block size for audio processing
  40:master_level.cpp **** 
  41:master_level.cpp **** // RMS
  42:master_level.cpp **** const float multiplier = 100;                  // Amplification of signal (per sample)
  43:master_level.cpp **** 
  44:master_level.cpp **** // Frequency Detection
  45:master_level.cpp **** const float targetFrequency = 25000.0f;        // Target frequency to detect
  46:master_level.cpp **** const float frequencyTolerance = 0.01f;       // Tolerance for frequency detection
  47:master_level.cpp **** 
  48:master_level.cpp **** // Printing
  49:master_level.cpp **** constexpr int kPrintIntervalMs = 1;         // Print interval
  50:master_level.cpp **** 
  51:master_level.cpp **** ////////////////////////////// Internal Variables for Master (DO NOT CHANGE) //////////////////////
  52:master_level.cpp **** // Hardware
  53:master_level.cpp **** DaisySeed hw;
  54:master_level.cpp **** 
  55:master_level.cpp **** // Global FFT library object
  56:master_level.cpp **** FFTLibrary fftLibrary(96000.f);
  57:master_level.cpp **** 
  58:master_level.cpp **** // FFT buffers for both microphones (MASTER)
  59:master_level.cpp **** static float DSY_SDRAM_BSS fft_input_buffer_0[kFftSize];
  60:master_level.cpp **** static float DSY_SDRAM_BSS fft_input_buffer_1[kFftSize];
  61:master_level.cpp **** static size_t buffer_write_pos_0 = 0;
  62:master_level.cpp **** static size_t buffer_write_pos_1 = 0;
  63:master_level.cpp **** static bool fft_ready_for_processing_0 = false;
  64:master_level.cpp **** static bool fft_ready_for_processing_1 = false;
  65:master_level.cpp **** 
  66:master_level.cpp **** // Frequency window (derived)
  67:master_level.cpp **** const float lowerFreq = targetFrequency * (1.0f - frequencyTolerance);
  68:master_level.cpp **** const float upperFreq = targetFrequency * (1.0f + frequencyTolerance);
  69:master_level.cpp **** 
  70:master_level.cpp **** // Latest raw magnitudes 
  71:master_level.cpp **** float detectedFrequencyLevel_0 = 0.0f;
ARM GAS  C:\Users\ryota\AppData\Local\Temp\ccqb3BvA.s 			page 10


  72:master_level.cpp **** float detectedFrequencyLevel_1 = 0.0f;
  73:master_level.cpp **** 
  74:master_level.cpp **** ////////////////////////////// Internal Variables for Communication (DO NOT CHANGE) ///////////////
  75:master_level.cpp **** // Print pacing
  76:master_level.cpp **** uint32_t lastPrintTime = 0;
  77:master_level.cpp **** 
  78:master_level.cpp **** // Normalized detected frequency levels (0 ~ 1 = master, 2 ~ 3 = slave)
  79:master_level.cpp **** float normalizedDetectedFrequencyLevel_0 = 0.0f;
  80:master_level.cpp **** float normalizedDetectedFrequencyLevel_1 = 0.0f;
  81:master_level.cpp **** float normalizedDetectedFrequencyLevel_2 = 0.0f;
  82:master_level.cpp **** float normalizedDetectedFrequencyLevel_3 = 0.0f;
  83:master_level.cpp **** 
  84:master_level.cpp **** 
  85:master_level.cpp **** ////////////////////////////////////////// Setup and Loop /////////////////////////////////////////
  86:master_level.cpp **** 
  87:master_level.cpp **** void MyCallback(AudioHandle::InputBuffer in, AudioHandle::OutputBuffer out, size_t size) {
  79              		.loc 6 87 90 is_stmt 1 view -0
  80              		.cfi_startproc
  81              		@ args = 0, pretend = 0, frame = 0
  82              		@ frame_needed = 0, uses_anonymous_args = 0
  88:master_level.cpp ****     for (size_t i = 0; i < size; i++)
  83              		.loc 6 88 5 view .LVU11
  84              	.LBB106:
  85              		.loc 6 88 26 view .LVU12
  86 0000 002A     		cmp	r2, #0
  87 0002 54D0     		beq	.L29
  88 0004 D0E90013 		ldrd	r1, r3, [r0]
  89              	.LVL2:
  90              		.loc 6 88 26 is_stmt 0 view .LVU13
  91              	.LBE106:
  87:master_level.cpp ****     for (size_t i = 0; i < size; i++)
  92              		.loc 6 87 90 view .LVU14
  93 0008 2DE9F04F 		push	{r4, r5, r6, r7, r8, r9, r10, fp, lr}
  94              		.cfi_def_cfa_offset 36
  95              		.cfi_offset 4, -36
  96              		.cfi_offset 5, -32
  97              		.cfi_offset 6, -28
  98              		.cfi_offset 7, -24
  99              		.cfi_offset 8, -20
 100              		.cfi_offset 9, -16
 101              		.cfi_offset 10, -12
 102              		.cfi_offset 11, -8
 103              		.cfi_offset 14, -4
 104 000c 03EB820C 		add	ip, r3, r2, lsl #2
 105 0010 274A     		ldr	r2, .L32
 106              	.LVL3:
 107              	.LBB108:
 108              	.LBB107:
  89:master_level.cpp ****     {
  90:master_level.cpp ****         float sample_0 = in[0][i];
  91:master_level.cpp ****         float sample_1 = in[1][i];
 109              		.loc 6 91 30 view .LVU15
 110 0012 0025     		movs	r5, #0
 111 0014 DFF8A8A0 		ldr	r10, .L32+16
 112 0018 DFF8A8B0 		ldr	fp, .L32+20
 113 001c 1778     		ldrb	r7, [r2]	@ zero_extendqisi2
 114 001e A946     		mov	r9, r5
ARM GAS  C:\Users\ryota\AppData\Local\Temp\ccqb3BvA.s 			page 11


 115 0020 244A     		ldr	r2, .L32+4
 116 0022 AE46     		mov	lr, r5
 117 0024 9AF80060 		ldrb	r6, [r10]	@ zero_extendqisi2
 118 0028 A846     		mov	r8, r5
 119 002a DBF80000 		ldr	r0, [fp]
 120              	.LVL4:
 121              		.loc 6 91 30 view .LVU16
 122 002e 1468     		ldr	r4, [r2]
 123              	.LVL5:
 124              	.L8:
  90:master_level.cpp ****         float sample_1 = in[1][i];
 125              		.loc 6 90 9 is_stmt 1 view .LVU17
 126              		.loc 6 91 9 view .LVU18
  92:master_level.cpp ****         
  93:master_level.cpp ****         // Amplify signals
  94:master_level.cpp ****         float processedSample_0 = sample_0 * multiplier;  
  95:master_level.cpp ****         float processedSample_1 = sample_1 * multiplier;
  96:master_level.cpp **** 
  97:master_level.cpp ****         // Fill the FFT buffers if ready for more data
  98:master_level.cpp ****         if (!fft_ready_for_processing_0)
  99:master_level.cpp ****         {
 100:master_level.cpp ****             fft_input_buffer_0[buffer_write_pos_0] = processedSample_0;
 127              		.loc 6 100 13 view .LVU19
  94:master_level.cpp ****         float processedSample_1 = sample_1 * multiplier;
 128              		.loc 6 94 15 is_stmt 0 view .LVU20
 129 0030 DFED216A 		vldr.32	s13, .L32+8
 130              		.loc 6 100 52 view .LVU21
 131 0034 214A     		ldr	r2, .L32+12
  91:master_level.cpp ****         
 132              		.loc 6 91 15 view .LVU22
 133 0036 F3EC017A 		vldmia.32	r3!, {s15}
 134              	.LVL6:
  94:master_level.cpp ****         float processedSample_1 = sample_1 * multiplier;
 135              		.loc 6 94 9 is_stmt 1 view .LVU23
  95:master_level.cpp **** 
 136              		.loc 6 95 9 view .LVU24
  98:master_level.cpp ****         {
 137              		.loc 6 98 9 view .LVU25
 138 003a 7EB9     		cbnz	r6, .L6
  94:master_level.cpp ****         float processedSample_1 = sample_1 * multiplier;
 139              		.loc 6 94 15 is_stmt 0 view .LVU26
 140 003c 91ED007A 		vldr.32	s14, [r1]
 141              		.loc 6 100 52 view .LVU27
 142 0040 02EB8002 		add	r2, r2, r0, lsl #2
 101:master_level.cpp ****             buffer_write_pos_0++;
 143              		.loc 6 101 31 view .LVU28
 144 0044 0130     		adds	r0, r0, #1
 145 0046 4FF0010E 		mov	lr, #1
  94:master_level.cpp ****         float processedSample_1 = sample_1 * multiplier;
 146              		.loc 6 94 15 view .LVU29
 147 004a 27EE267A 		vmul.f32	s14, s14, s13
 102:master_level.cpp **** 
 103:master_level.cpp ****             if (buffer_write_pos_0 >= kFftSize)
 148              		.loc 6 103 13 view .LVU30
 149 004e 3F28     		cmp	r0, #63
 100:master_level.cpp ****             buffer_write_pos_0++;
 150              		.loc 6 100 52 view .LVU31
ARM GAS  C:\Users\ryota\AppData\Local\Temp\ccqb3BvA.s 			page 12


 151 0050 82ED007A 		vstr.32	s14, [r2]
 101:master_level.cpp ****             buffer_write_pos_0++;
 152              		.loc 6 101 13 is_stmt 1 view .LVU32
 153              		.loc 6 103 13 view .LVU33
 154 0054 02D9     		bls	.L6
 104:master_level.cpp ****             {
 105:master_level.cpp ****                 buffer_write_pos_0 = 0;
 155              		.loc 6 105 36 is_stmt 0 view .LVU34
 156 0056 3046     		mov	r0, r6
 157 0058 F046     		mov	r8, lr
 106:master_level.cpp ****                 fft_ready_for_processing_0 = true;
 158              		.loc 6 106 44 view .LVU35
 159 005a 7646     		mov	r6, lr
 160              	.L6:
 107:master_level.cpp ****             }
 108:master_level.cpp ****         }
 109:master_level.cpp **** 
 110:master_level.cpp ****         if (!fft_ready_for_processing_1)
 161              		.loc 6 110 9 is_stmt 1 view .LVU36
 111:master_level.cpp ****         {
 112:master_level.cpp ****             fft_input_buffer_1[buffer_write_pos_1] = processedSample_1;
 162              		.loc 6 112 13 view .LVU37
  95:master_level.cpp **** 
 163              		.loc 6 95 15 is_stmt 0 view .LVU38
 164 005c 9FED167A 		vldr.32	s14, .L32+8
 165              		.loc 6 112 52 view .LVU39
 166 0060 164A     		ldr	r2, .L32+12
 110:master_level.cpp ****         {
 167              		.loc 6 110 9 view .LVU40
 168 0062 67B9     		cbnz	r7, .L7
 169              		.loc 6 112 52 view .LVU41
 170 0064 02EB8402 		add	r2, r2, r4, lsl #2
 113:master_level.cpp ****             buffer_write_pos_1++;
 171              		.loc 6 113 31 view .LVU42
 172 0068 0134     		adds	r4, r4, #1
  95:master_level.cpp **** 
 173              		.loc 6 95 15 view .LVU43
 174 006a 67EE877A 		vmul.f32	s15, s15, s14
 175              	.LVL7:
  95:master_level.cpp **** 
 176              		.loc 6 95 15 view .LVU44
 177 006e 0125     		movs	r5, #1
 114:master_level.cpp **** 
 115:master_level.cpp ****             if (buffer_write_pos_1 >= kFftSize)
 178              		.loc 6 115 13 view .LVU45
 179 0070 3F2C     		cmp	r4, #63
 112:master_level.cpp ****             buffer_write_pos_1++;
 180              		.loc 6 112 52 view .LVU46
 181 0072 C2ED407A 		vstr.32	s15, [r2, #256]
 113:master_level.cpp ****             buffer_write_pos_1++;
 182              		.loc 6 113 13 is_stmt 1 view .LVU47
 183              		.loc 6 115 13 view .LVU48
 184 0076 02D9     		bls	.L7
 116:master_level.cpp ****             {
 117:master_level.cpp ****                 buffer_write_pos_1 = 0;
 185              		.loc 6 117 36 is_stmt 0 view .LVU49
 186 0078 3C46     		mov	r4, r7
ARM GAS  C:\Users\ryota\AppData\Local\Temp\ccqb3BvA.s 			page 13


 187 007a A946     		mov	r9, r5
 118:master_level.cpp ****                 fft_ready_for_processing_1 = true;
 188              		.loc 6 118 44 view .LVU50
 189 007c 2F46     		mov	r7, r5
 190              	.L7:
 191              		.loc 6 118 44 view .LVU51
 192              	.LBE107:
  88:master_level.cpp ****     {
 193              		.loc 6 88 5 is_stmt 1 discriminator 2 view .LVU52
  88:master_level.cpp ****     {
 194              		.loc 6 88 26 discriminator 2 view .LVU53
 195 007e 9C45     		cmp	ip, r3
 196 0080 01F10401 		add	r1, r1, #4
 197 0084 D4D1     		bne	.L8
 198 0086 B8F1000F 		cmp	r8, #0
 199 008a 01D0     		beq	.L9
 200 008c 8AF80060 		strb	r6, [r10]
 201              	.L9:
 202 0090 BEF1000F 		cmp	lr, #0
 203 0094 01D0     		beq	.L10
 204 0096 CBF80000 		str	r0, [fp]
 205              	.L10:
 206 009a B9F1000F 		cmp	r9, #0
 207 009e 01D0     		beq	.L11
 208 00a0 034B     		ldr	r3, .L32
 209 00a2 1F70     		strb	r7, [r3]
 210              	.L11:
 211 00a4 0DB1     		cbz	r5, .L3
 212 00a6 034B     		ldr	r3, .L32+4
 213 00a8 1C60     		str	r4, [r3]
 214              	.L3:
 215              	.LBE108:
 119:master_level.cpp ****             }
 120:master_level.cpp ****         }
 121:master_level.cpp ****     }
 122:master_level.cpp **** }
 216              		.loc 6 122 1 is_stmt 0 view .LVU54
 217 00aa BDE8F08F 		pop	{r4, r5, r6, r7, r8, r9, r10, fp, pc}
 218              	.LVL8:
 219              	.L29:
 220              		.cfi_def_cfa_offset 0
 221              		.cfi_restore 4
 222              		.cfi_restore 5
 223              		.cfi_restore 6
 224              		.cfi_restore 7
 225              		.cfi_restore 8
 226              		.cfi_restore 9
 227              		.cfi_restore 10
 228              		.cfi_restore 11
 229              		.cfi_restore 14
 230              		.loc 6 122 1 view .LVU55
 231 00ae 7047     		bx	lr
 232              	.L33:
 233              		.align	2
 234              	.L32:
 235 00b0 00000000 		.word	.LANCHOR2
 236 00b4 00000000 		.word	.LANCHOR3
ARM GAS  C:\Users\ryota\AppData\Local\Temp\ccqb3BvA.s 			page 14


 237 00b8 0000C842 		.word	1120403456
 238 00bc 00000000 		.word	.LANCHOR4
 239 00c0 00000000 		.word	.LANCHOR0
 240 00c4 00000000 		.word	.LANCHOR1
 241              		.cfi_endproc
 242              	.LFE5443:
 244              		.section	.rodata.main.str1.4,"aMS",%progbits,1
 245              		.align	2
 246              	.LC0:
 247 0000 54444F41 		.ascii	"TDOA Frequency Detection Ready\000"
 247      20467265 
 247      7175656E 
 247      63792044 
 247      65746563 
 248 001f 00       		.align	2
 249              	.LC1:
 250 0020 436F6E74 		.ascii	"Continuous monitoring: printing levels every %d ms\000"
 250      696E756F 
 250      7573206D 
 250      6F6E6974 
 250      6F72696E 
 251 0053 00       		.align	2
 252              	.LC2:
 253 0054 68796472 		.ascii	"hydrophone_log: Mic0 reads%c%d.%03d Mic1 reads%c%d."
 253      6F70686F 
 253      6E655F6C 
 253      6F673A20 
 253      4D696330 
 254 0087 25303364 		.ascii	"%03d Mic2 reads%c%d.%03d Mic3 reads%c%d.%03d\000"
 254      204D6963 
 254      32207265 
 254      61647325 
 254      6325642E 
 255              		.section	.text.startup.main,"ax",%progbits
 256              		.align	1
 257              		.p2align 2,,3
 258              		.global	main
 259              		.syntax unified
 260              		.thumb
 261              		.thumb_func
 262              		.fpu fpv5-d16
 264              	main:
 265              	.LFB5444:
 123:master_level.cpp **** 
 124:master_level.cpp **** int main(void)
 125:master_level.cpp **** {
 266              		.loc 6 125 1 is_stmt 1 view -0
 267              		.cfi_startproc
 268              		@ args = 0, pretend = 0, frame = 1120
 269              		@ frame_needed = 0, uses_anonymous_args = 0
 126:master_level.cpp ****     // Initialize the Daisy Seed Hardware
 127:master_level.cpp ****     hw.Init();
 270              		.loc 6 127 5 view .LVU57
 125:master_level.cpp ****     // Initialize the Daisy Seed Hardware
 271              		.loc 6 125 1 is_stmt 0 view .LVU58
 272 0000 2DE9F04F 		push	{r4, r5, r6, r7, r8, r9, r10, fp, lr}
 273              		.cfi_def_cfa_offset 36
ARM GAS  C:\Users\ryota\AppData\Local\Temp\ccqb3BvA.s 			page 15


 274              		.cfi_offset 4, -36
 275              		.cfi_offset 5, -32
 276              		.cfi_offset 6, -28
 277              		.cfi_offset 7, -24
 278              		.cfi_offset 8, -20
 279              		.cfi_offset 9, -16
 280              		.cfi_offset 10, -12
 281              		.cfi_offset 11, -8
 282              		.cfi_offset 14, -4
 283              		.loc 6 127 12 view .LVU59
 284 0004 0021     		movs	r1, #0
 125:master_level.cpp ****     // Initialize the Daisy Seed Hardware
 285              		.loc 6 125 1 view .LVU60
 286 0006 ADF28C4D 		subw	sp, sp, #1164
 287              		.cfi_def_cfa_offset 1200
 288              		.loc 6 127 12 view .LVU61
 289 000a 9D48     		ldr	r0, .L61+8
 128:master_level.cpp ****     hw.SetAudioSampleRate(SaiHandle::Config::SampleRate::SAI_96KHZ);
 129:master_level.cpp ****     hw.SetAudioBlockSize(kBlockSize);
 130:master_level.cpp **** 
 131:master_level.cpp ****     // Initialize the FFT library with the actual sample rate
 132:master_level.cpp ****     fftLibrary = FFTLibrary(hw.AudioSampleRate());
 133:master_level.cpp **** 
 134:master_level.cpp ****     // Initialize serial
 135:master_level.cpp ****     SerialLibrary serial(hw);
 136:master_level.cpp ****     serial.Init();
 137:master_level.cpp **** 
 138:master_level.cpp ****     // Start audio
 139:master_level.cpp ****     hw.StartAudio(MyCallback);
 140:master_level.cpp **** 
 141:master_level.cpp ****     hw.PrintLine("TDOA Frequency Detection Ready");
 142:master_level.cpp ****     hw.PrintLine("Continuous monitoring: printing levels every %d ms", kPrintIntervalMs);
 143:master_level.cpp **** 
 144:master_level.cpp ****     // Get timestamp
 145:master_level.cpp ****     lastPrintTime = System::GetNow();
 146:master_level.cpp **** 
 147:master_level.cpp ****     // Initialize ADC on A0 and A1 for slave hydrophones
 148:master_level.cpp ****     AdcChannelConfig adc_cfg[2];
 149:master_level.cpp ****     adc_cfg[0].InitSingle(A0);
 290              		.loc 6 149 26 view .LVU62
 291 000c 0224     		movs	r4, #2
 127:master_level.cpp ****     hw.SetAudioSampleRate(SaiHandle::Config::SampleRate::SAI_96KHZ);
 292              		.loc 6 127 12 view .LVU63
 293 000e FFF7FEFF 		bl	_ZN5daisy9DaisySeed4InitEb
 294              	.LVL9:
 128:master_level.cpp ****     hw.SetAudioSampleRate(SaiHandle::Config::SampleRate::SAI_96KHZ);
 295              		.loc 6 128 5 is_stmt 1 view .LVU64
 128:master_level.cpp ****     hw.SetAudioSampleRate(SaiHandle::Config::SampleRate::SAI_96KHZ);
 296              		.loc 6 128 26 is_stmt 0 view .LVU65
 297 0012 0421     		movs	r1, #4
 298 0014 9A48     		ldr	r0, .L61+8
 299              		.loc 6 149 26 view .LVU66
 300 0016 0025     		movs	r5, #0
 128:master_level.cpp ****     hw.SetAudioSampleRate(SaiHandle::Config::SampleRate::SAI_96KHZ);
 301              		.loc 6 128 26 view .LVU67
 302 0018 FFF7FEFF 		bl	_ZN5daisy9DaisySeed18SetAudioSampleRateENS_9SaiHandle6Config10SampleRateE
 303              	.LVL10:
ARM GAS  C:\Users\ryota\AppData\Local\Temp\ccqb3BvA.s 			page 16


 129:master_level.cpp **** 
 304              		.loc 6 129 5 is_stmt 1 view .LVU68
 129:master_level.cpp **** 
 305              		.loc 6 129 25 is_stmt 0 view .LVU69
 306 001c 4021     		movs	r1, #64
 307 001e 9848     		ldr	r0, .L61+8
 308 0020 FFF7FEFF 		bl	_ZN5daisy9DaisySeed17SetAudioBlockSizeEj
 309              	.LVL11:
 132:master_level.cpp **** 
 310              		.loc 6 132 5 is_stmt 1 view .LVU70
 132:master_level.cpp **** 
 311              		.loc 6 132 49 is_stmt 0 view .LVU71
 312 0024 9648     		ldr	r0, .L61+8
 313 0026 FFF7FEFF 		bl	_ZN5daisy9DaisySeed15AudioSampleRateEv
 314              	.LVL12:
 315 002a 16A8     		add	r0, sp, #88
 316 002c FFF7FEFF 		bl	_ZN10FFTLibraryC1Ef
 317              	.LVL13:
 132:master_level.cpp **** 
 318              		.loc 6 132 16 view .LVU72
 319 0030 944B     		ldr	r3, .L61+12
 320 0032 169A     		ldr	r2, [sp, #88]	@ float
 135:master_level.cpp ****     serial.Init();
 321              		.loc 6 135 28 view .LVU73
 322 0034 16A8     		add	r0, sp, #88
 323 0036 9249     		ldr	r1, .L61+8
 132:master_level.cpp **** 
 324              		.loc 6 132 16 view .LVU74
 325 0038 1A60     		str	r2, [r3]	@ float
 135:master_level.cpp ****     serial.Init();
 326              		.loc 6 135 5 is_stmt 1 view .LVU75
 135:master_level.cpp ****     serial.Init();
 327              		.loc 6 135 28 is_stmt 0 view .LVU76
 328 003a FFF7FEFF 		bl	_ZN13SerialLibraryC1ERN5daisy9DaisySeedE
 329              	.LVL14:
 136:master_level.cpp **** 
 330              		.loc 6 136 5 is_stmt 1 view .LVU77
 136:master_level.cpp **** 
 331              		.loc 6 136 16 is_stmt 0 view .LVU78
 332 003e 16A8     		add	r0, sp, #88
 145:master_level.cpp **** 
 333              		.loc 6 145 19 view .LVU79
 334 0040 DFF87C92 		ldr	r9, .L61+72
 136:master_level.cpp **** 
 335              		.loc 6 136 16 view .LVU80
 336 0044 FFF7FEFF 		bl	_ZN13SerialLibrary4InitEv
 337              	.LVL15:
 139:master_level.cpp **** 
 338              		.loc 6 139 5 is_stmt 1 view .LVU81
 139:master_level.cpp **** 
 339              		.loc 6 139 18 is_stmt 0 view .LVU82
 340 0048 8F49     		ldr	r1, .L61+16
 341 004a 8D48     		ldr	r0, .L61+8
 342 004c FFF7FEFF 		bl	_ZN5daisy9DaisySeed10StartAudioEPFvPKPKfPPfjE
 343              	.LVL16:
 141:master_level.cpp ****     hw.PrintLine("Continuous monitoring: printing levels every %d ms", kPrintIntervalMs);
 344              		.loc 6 141 5 is_stmt 1 view .LVU83
ARM GAS  C:\Users\ryota\AppData\Local\Temp\ccqb3BvA.s 			page 17


 345              	.LBB109:
 346              	.LBI109:
  23:../../libDaisy//src/daisy_seed.h **** 
  24:../../libDaisy//src/daisy_seed.h ****     /** This function used to provide a pre-initialization configuraiton 
  25:../../libDaisy//src/daisy_seed.h ****      *  it has since been deprecated, and does nothing.
  26:../../libDaisy//src/daisy_seed.h ****      */
  27:../../libDaisy//src/daisy_seed.h ****     void Configure();
  28:../../libDaisy//src/daisy_seed.h **** 
  29:../../libDaisy//src/daisy_seed.h ****     /** 
  30:../../libDaisy//src/daisy_seed.h ****     Initializes the Daisy Seed and the following peripherals:
  31:../../libDaisy//src/daisy_seed.h ****     SDRAM, QSPI, 24-bit 48kHz Audio via AK4556, Internal USB,
  32:../../libDaisy//src/daisy_seed.h ****     as well as the built-in LED and Testpoint.
  33:../../libDaisy//src/daisy_seed.h **** 
  34:../../libDaisy//src/daisy_seed.h ****     ADCs, DACs, and other special peripherals (such as I2C, SPI, etc.)
  35:../../libDaisy//src/daisy_seed.h ****     can be initialized using their specific initializers within libdaisy
  36:../../libDaisy//src/daisy_seed.h ****     for a specific application.
  37:../../libDaisy//src/daisy_seed.h ****     */
  38:../../libDaisy//src/daisy_seed.h ****     void Init(bool boost = false);
  39:../../libDaisy//src/daisy_seed.h **** 
  40:../../libDaisy//src/daisy_seed.h ****     /** 
  41:../../libDaisy//src/daisy_seed.h ****     Deinitializes all peripherals automatically handled by `Init`.
  42:../../libDaisy//src/daisy_seed.h ****     */
  43:../../libDaisy//src/daisy_seed.h ****     void DeInit();
  44:../../libDaisy//src/daisy_seed.h **** 
  45:../../libDaisy//src/daisy_seed.h ****     /** 
  46:../../libDaisy//src/daisy_seed.h ****     Wait some ms before going on.
  47:../../libDaisy//src/daisy_seed.h ****     \param del Delay time in ms.
  48:../../libDaisy//src/daisy_seed.h ****     */
  49:../../libDaisy//src/daisy_seed.h ****     void DelayMs(size_t del);
  50:../../libDaisy//src/daisy_seed.h **** 
  51:../../libDaisy//src/daisy_seed.h ****     /** 
  52:../../libDaisy//src/daisy_seed.h ****     Returns the gpio_pin corresponding to the index 0-31.
  53:../../libDaisy//src/daisy_seed.h ****     For the given GPIO on the Daisy Seed (labeled 1-32 in docs).
  54:../../libDaisy//src/daisy_seed.h ****     */
  55:../../libDaisy//src/daisy_seed.h ****     static dsy_gpio_pin GetPin(uint8_t pin_idx);
  56:../../libDaisy//src/daisy_seed.h **** 
  57:../../libDaisy//src/daisy_seed.h ****     /** Begins the audio for the seeds builtin audio.
  58:../../libDaisy//src/daisy_seed.h ****     the specified callback will get called whenever
  59:../../libDaisy//src/daisy_seed.h ****     new data is ready to be prepared.
  60:../../libDaisy//src/daisy_seed.h ****     */
  61:../../libDaisy//src/daisy_seed.h ****     void StartAudio(AudioHandle::InterleavingAudioCallback cb);
  62:../../libDaisy//src/daisy_seed.h **** 
  63:../../libDaisy//src/daisy_seed.h ****     /** Begins the audio for the seeds builtin audio.
  64:../../libDaisy//src/daisy_seed.h ****     the specified callback will get called whenever
  65:../../libDaisy//src/daisy_seed.h ****     new data is ready to be prepared.
  66:../../libDaisy//src/daisy_seed.h ****     This will use the newer non-interleaved callback.
  67:../../libDaisy//src/daisy_seed.h ****     */
  68:../../libDaisy//src/daisy_seed.h ****     void StartAudio(AudioHandle::AudioCallback cb);
  69:../../libDaisy//src/daisy_seed.h **** 
  70:../../libDaisy//src/daisy_seed.h ****     /** Changes to a new interleaved callback
  71:../../libDaisy//src/daisy_seed.h ****      */
  72:../../libDaisy//src/daisy_seed.h ****     void ChangeAudioCallback(AudioHandle::InterleavingAudioCallback cb);
  73:../../libDaisy//src/daisy_seed.h **** 
  74:../../libDaisy//src/daisy_seed.h ****     /** Changes to a new multichannel callback
  75:../../libDaisy//src/daisy_seed.h ****      */
  76:../../libDaisy//src/daisy_seed.h ****     void ChangeAudioCallback(AudioHandle::AudioCallback cb);
  77:../../libDaisy//src/daisy_seed.h **** 
ARM GAS  C:\Users\ryota\AppData\Local\Temp\ccqb3BvA.s 			page 18


  78:../../libDaisy//src/daisy_seed.h ****     /** Stops the audio if it is running. */
  79:../../libDaisy//src/daisy_seed.h ****     void StopAudio();
  80:../../libDaisy//src/daisy_seed.h **** 
  81:../../libDaisy//src/daisy_seed.h ****     /** Updates the Audio Sample Rate, and reinitializes.
  82:../../libDaisy//src/daisy_seed.h ****      ** Audio must be stopped for this to work.
  83:../../libDaisy//src/daisy_seed.h ****      */
  84:../../libDaisy//src/daisy_seed.h ****     void SetAudioSampleRate(SaiHandle::Config::SampleRate samplerate);
  85:../../libDaisy//src/daisy_seed.h **** 
  86:../../libDaisy//src/daisy_seed.h ****     /** Returns the audio sample rate in Hz as a floating point number.
  87:../../libDaisy//src/daisy_seed.h ****      */
  88:../../libDaisy//src/daisy_seed.h ****     float AudioSampleRate();
  89:../../libDaisy//src/daisy_seed.h **** 
  90:../../libDaisy//src/daisy_seed.h ****     /** Sets the number of samples processed per channel by the audio callback.
  91:../../libDaisy//src/daisy_seed.h ****      */
  92:../../libDaisy//src/daisy_seed.h ****     void SetAudioBlockSize(size_t blocksize);
  93:../../libDaisy//src/daisy_seed.h **** 
  94:../../libDaisy//src/daisy_seed.h ****     /** Returns the number of samples per channel in a block of audio. */
  95:../../libDaisy//src/daisy_seed.h ****     size_t AudioBlockSize();
  96:../../libDaisy//src/daisy_seed.h **** 
  97:../../libDaisy//src/daisy_seed.h ****     /** Returns the rate in Hz that the Audio callback is called */
  98:../../libDaisy//src/daisy_seed.h ****     float AudioCallbackRate() const;
  99:../../libDaisy//src/daisy_seed.h **** 
 100:../../libDaisy//src/daisy_seed.h ****     /** Returns the SAI Handle for the Daisy Seed 
 101:../../libDaisy//src/daisy_seed.h ****      *  This can be useful when adding a secondary codec,
 102:../../libDaisy//src/daisy_seed.h ****      *  the result of this function can be passed to the audio reinit 
 103:../../libDaisy//src/daisy_seed.h ****      *  with an SAI2 configuration
 104:../../libDaisy//src/daisy_seed.h ****      */
 105:../../libDaisy//src/daisy_seed.h ****     const SaiHandle& AudioSaiHandle() const;
 106:../../libDaisy//src/daisy_seed.h **** 
 107:../../libDaisy//src/daisy_seed.h ****     /** Sets the state of the built in LED
 108:../../libDaisy//src/daisy_seed.h ****      */
 109:../../libDaisy//src/daisy_seed.h ****     void SetLed(bool state);
 110:../../libDaisy//src/daisy_seed.h **** 
 111:../../libDaisy//src/daisy_seed.h ****     /** Sets the state of the test point near pin 10
 112:../../libDaisy//src/daisy_seed.h ****      */
 113:../../libDaisy//src/daisy_seed.h ****     void SetTestPoint(bool state);
 114:../../libDaisy//src/daisy_seed.h **** 
 115:../../libDaisy//src/daisy_seed.h ****     /** Print formatted debug log message
 116:../../libDaisy//src/daisy_seed.h ****      */
 117:../../libDaisy//src/daisy_seed.h ****     template <typename... VA>
 118:../../libDaisy//src/daisy_seed.h ****     static void Print(const char* format, VA... va)
 119:../../libDaisy//src/daisy_seed.h ****     {
 120:../../libDaisy//src/daisy_seed.h ****         Log::Print(format, va...);
 121:../../libDaisy//src/daisy_seed.h ****     }
 122:../../libDaisy//src/daisy_seed.h **** 
 123:../../libDaisy//src/daisy_seed.h ****     /** Print formatted debug log message with automatic line termination
 124:../../libDaisy//src/daisy_seed.h ****     */
 125:../../libDaisy//src/daisy_seed.h ****     template <typename... VA>
 126:../../libDaisy//src/daisy_seed.h ****     static void PrintLine(const char* format, VA... va)
 347              		.loc 1 126 17 view .LVU84
 348              	.LBB110:
 127:../../libDaisy//src/daisy_seed.h ****     {
 128:../../libDaisy//src/daisy_seed.h ****         Log::PrintLine(format, va...);
 349              		.loc 1 128 23 is_stmt 0 view .LVU85
 350 0050 8E48     		ldr	r0, .L61+20
 351 0052 FFF7FEFF 		bl	_ZN5daisy6LoggerILNS_17LoggerDestinationE1EE9PrintLineEPKcz
 352              	.LVL17:
ARM GAS  C:\Users\ryota\AppData\Local\Temp\ccqb3BvA.s 			page 19


 353              		.loc 1 128 23 view .LVU86
 354              	.LBE110:
 355              	.LBE109:
 142:master_level.cpp **** 
 356              		.loc 6 142 5 is_stmt 1 view .LVU87
 357              	.LBB111:
 358              	.LBI111:
 126:../../libDaisy//src/daisy_seed.h ****     {
 359              		.loc 1 126 17 view .LVU88
 360              	.LBB112:
 361              		.loc 1 128 23 is_stmt 0 view .LVU89
 362 0056 0121     		movs	r1, #1
 363 0058 8D48     		ldr	r0, .L61+24
 364 005a FFF7FEFF 		bl	_ZN5daisy6LoggerILNS_17LoggerDestinationE1EE9PrintLineEPKcz
 365              	.LVL18:
 366              		.loc 1 128 23 view .LVU90
 367              	.LBE112:
 368              	.LBE111:
 145:master_level.cpp **** 
 369              		.loc 6 145 5 is_stmt 1 view .LVU91
 370 005e DFF86482 		ldr	r8, .L61+76
 145:master_level.cpp **** 
 371              		.loc 6 145 35 is_stmt 0 view .LVU92
 372 0062 FFF7FEFF 		bl	_ZN5daisy6System6GetNowEv
 373              	.LVL19:
 374              		.loc 6 149 26 view .LVU93
 375 0066 8DF82D50 		strb	r5, [sp, #45]
 376 006a 8DF82C40 		strb	r4, [sp, #44]
 377 006e 2246     		mov	r2, r4
 378 0070 0B99     		ldr	r1, [sp, #44]
 145:master_level.cpp **** 
 379              		.loc 6 145 19 view .LVU94
 380 0072 C9F80000 		str	r0, [r9]
 148:master_level.cpp ****     adc_cfg[0].InitSingle(A0);
 381              		.loc 6 148 5 is_stmt 1 view .LVU95
 382              		.loc 6 149 5 view .LVU96
 383              		.loc 6 149 26 is_stmt 0 view .LVU97
 384 0076 0DA8     		add	r0, sp, #52
 385 0078 FFF7FEFF 		bl	_ZN5daisy16AdcChannelConfig10InitSingleE12dsy_gpio_pinNS0_15ConversionSpeedE
 386              	.LVL20:
 150:master_level.cpp ****     adc_cfg[1].InitSingle(A1);
 387              		.loc 6 150 5 is_stmt 1 view .LVU98
 388              		.loc 6 150 26 is_stmt 0 view .LVU99
 389 007c 0323     		movs	r3, #3
 390 007e 8DF83050 		strb	r5, [sp, #48]
 391 0082 2246     		mov	r2, r4
 392 0084 8DF83130 		strb	r3, [sp, #49]
 393 0088 0DF14600 		add	r0, sp, #70
 394 008c 0C99     		ldr	r1, [sp, #48]
 395 008e FFF7FEFF 		bl	_ZN5daisy16AdcChannelConfig10InitSingleE12dsy_gpio_pinNS0_15ConversionSpeedE
 396              	.LVL21:
 151:master_level.cpp ****     hw.adc.Init(adc_cfg, 2);
 397              		.loc 6 151 5 is_stmt 1 view .LVU100
 398              		.loc 6 151 16 is_stmt 0 view .LVU101
 399 0092 0423     		movs	r3, #4
 400 0094 2246     		mov	r2, r4
 401 0096 0DA9     		add	r1, sp, #52
ARM GAS  C:\Users\ryota\AppData\Local\Temp\ccqb3BvA.s 			page 20


 402 0098 7E48     		ldr	r0, .L61+28
 403 009a FFF7FEFF 		bl	_ZN5daisy9AdcHandle4InitEPNS_16AdcChannelConfigEjNS0_12OverSamplingE
 404              	.LVL22:
 152:master_level.cpp ****     hw.adc.Start();
 405              		.loc 6 152 5 is_stmt 1 view .LVU102
 406              		.loc 6 152 17 is_stmt 0 view .LVU103
 407 009e 7D48     		ldr	r0, .L61+28
 408 00a0 7D4D     		ldr	r5, .L61+32
 409 00a2 FFF7FEFF 		bl	_ZN5daisy9AdcHandle5StartEv
 410              	.LVL23:
 411 00a6 7D4F     		ldr	r7, .L61+36
 412 00a8 7D4E     		ldr	r6, .L61+40
 413 00aa DFF81CB2 		ldr	fp, .L61+80
 414 00ae DFF81CA2 		ldr	r10, .L61+84
 415 00b2 27E0     		b	.L42
 416              	.L59:
 417              	.LBB113:
 153:master_level.cpp **** 
 154:master_level.cpp ****     while (1)
 155:master_level.cpp ****     {
 156:master_level.cpp ****         // Update latest magnitudes when FFT buffers are ready
 157:master_level.cpp ****         if (fft_ready_for_processing_0)
 158:master_level.cpp ****         {
 159:master_level.cpp ****             detectedFrequencyLevel_0 = fftLibrary.getFrequencyMagnitude(fft_input_buffer_0, kFftSiz
 160:master_level.cpp ****             fft_ready_for_processing_0 = false;
 161:master_level.cpp ****         }
 162:master_level.cpp **** 
 163:master_level.cpp ****         if (fft_ready_for_processing_1)
 164:master_level.cpp ****         {
 165:master_level.cpp ****             detectedFrequencyLevel_1 = fftLibrary.getFrequencyMagnitude(fft_input_buffer_1, kFftSiz
 166:master_level.cpp ****             fft_ready_for_processing_1 = false;
 167:master_level.cpp ****         }
 168:master_level.cpp **** 
 169:master_level.cpp ****         // clip the detected frequency levels
 170:master_level.cpp ****         if (detectedFrequencyLevel_0 > hydrophone_0_max)
 171:master_level.cpp ****         {
 172:master_level.cpp ****             detectedFrequencyLevel_0 = hydrophone_0_max;
 173:master_level.cpp ****         }
 174:master_level.cpp ****         if (detectedFrequencyLevel_1 > hydrophone_1_max)
 175:master_level.cpp ****         {
 176:master_level.cpp ****             detectedFrequencyLevel_1 = hydrophone_1_max;
 177:master_level.cpp ****         }
 178:master_level.cpp ****         
 179:master_level.cpp ****         // Normalize detected frequency levels
 180:master_level.cpp ****         normalizedDetectedFrequencyLevel_0 = detectedFrequencyLevel_0 / hydrophone_0_max;
 418              		.loc 6 180 71 view .LVU104
 419 00b4 B5EE007A 		vmov.f32	s14, #2.5e-1
 420 00b8 67EE877A 		vmul.f32	s15, s15, s14
 174:master_level.cpp ****         {
 421              		.loc 6 174 9 is_stmt 1 view .LVU105
 422 00bc B1EE007A 		vmov.f32	s14, #4.0e+0
 423 00c0 B4EEC70A 		vcmpe.f32	s0, s14
 424 00c4 F1EE10FA 		vmrs	APSR_nzcv, FPSCR
 425 00c8 37DC     		bgt	.L40
 426              	.L60:
 181:master_level.cpp ****         normalizedDetectedFrequencyLevel_1 = detectedFrequencyLevel_1 / hydrophone_1_max;
 427              		.loc 6 181 71 is_stmt 0 view .LVU106
ARM GAS  C:\Users\ryota\AppData\Local\Temp\ccqb3BvA.s 			page 21


 428 00ca B5EE007A 		vmov.f32	s14, #2.5e-1
 429 00ce 20EE070A 		vmul.f32	s0, s0, s14
 430              	.L41:
 180:master_level.cpp ****         normalizedDetectedFrequencyLevel_1 = detectedFrequencyLevel_1 / hydrophone_1_max;
 431              		.loc 6 180 9 is_stmt 1 view .LVU107
 182:master_level.cpp **** 
 183:master_level.cpp ****         // Read analog values from A0/A1 (from slave)
 184:master_level.cpp ****         normalizedDetectedFrequencyLevel_2 = hw.adc.GetFloat(0);
 432              		.loc 6 184 61 is_stmt 0 view .LVU108
 433 00d2 0021     		movs	r1, #0
 434 00d4 6F48     		ldr	r0, .L61+28
 180:master_level.cpp ****         normalizedDetectedFrequencyLevel_1 = detectedFrequencyLevel_1 / hydrophone_1_max;
 435              		.loc 6 180 44 view .LVU109
 436 00d6 CBED007A 		vstr.32	s15, [fp]
 181:master_level.cpp **** 
 437              		.loc 6 181 9 is_stmt 1 view .LVU110
 181:master_level.cpp **** 
 438              		.loc 6 181 44 is_stmt 0 view .LVU111
 439 00da 8AED000A 		vstr.32	s0, [r10]
 440              		.loc 6 184 9 is_stmt 1 view .LVU112
 441              		.loc 6 184 61 is_stmt 0 view .LVU113
 442 00de FFF7FEFF 		bl	_ZNK5daisy9AdcHandle8GetFloatEh
 443              	.LVL24:
 444              		.loc 6 184 44 view .LVU114
 445 00e2 704B     		ldr	r3, .L61+44
 185:master_level.cpp ****         normalizedDetectedFrequencyLevel_3 = hw.adc.GetFloat(1);
 446              		.loc 6 185 61 view .LVU115
 447 00e4 0121     		movs	r1, #1
 448 00e6 6B48     		ldr	r0, .L61+28
 184:master_level.cpp ****         normalizedDetectedFrequencyLevel_3 = hw.adc.GetFloat(1);
 449              		.loc 6 184 44 view .LVU116
 450 00e8 83ED000A 		vstr.32	s0, [r3]
 451              		.loc 6 185 9 is_stmt 1 view .LVU117
 452              		.loc 6 185 61 is_stmt 0 view .LVU118
 453 00ec FFF7FEFF 		bl	_ZNK5daisy9AdcHandle8GetFloatEh
 454              	.LVL25:
 455              		.loc 6 185 44 view .LVU119
 456 00f0 6D4B     		ldr	r3, .L61+48
 457 00f2 83ED000A 		vstr.32	s0, [r3]
 186:master_level.cpp **** 
 187:master_level.cpp ****         // Periodic print
 188:master_level.cpp ****         uint32_t currentTime = System::GetNow();
 458              		.loc 6 188 9 is_stmt 1 view .LVU120
 459              		.loc 6 188 46 is_stmt 0 view .LVU121
 460 00f6 FFF7FEFF 		bl	_ZN5daisy6System6GetNowEv
 461              	.LVL26:
 189:master_level.cpp ****         if (currentTime - lastPrintTime >= kPrintIntervalMs)
 462              		.loc 6 189 9 view .LVU122
 463 00fa D9F80030 		ldr	r3, [r9]
 188:master_level.cpp ****         if (currentTime - lastPrintTime >= kPrintIntervalMs)
 464              		.loc 6 188 46 view .LVU123
 465 00fe 0446     		mov	r4, r0
 466              	.LVL27:
 467              		.loc 6 189 9 is_stmt 1 view .LVU124
 468 0100 8342     		cmp	r3, r0
 469 0102 3CD1     		bne	.L57
 470              	.LVL28:
ARM GAS  C:\Users\ryota\AppData\Local\Temp\ccqb3BvA.s 			page 22


 471              	.L42:
 472              		.loc 6 189 9 is_stmt 0 view .LVU125
 473              	.LBE113:
 154:master_level.cpp ****     {
 474              		.loc 6 154 5 is_stmt 1 view .LVU126
 475              	.LBB148:
 157:master_level.cpp ****         {
 476              		.loc 6 157 9 view .LVU127
 477 0104 98F80030 		ldrb	r3, [r8]	@ zero_extendqisi2
 478 0108 53BB     		cbnz	r3, .L58
 479              	.L35:
 163:master_level.cpp ****         {
 480              		.loc 6 163 9 view .LVU128
 481 010a 3B78     		ldrb	r3, [r7]	@ zero_extendqisi2
 482 010c D3B9     		cbnz	r3, .L36
 174:master_level.cpp ****         {
 483              		.loc 6 174 38 is_stmt 0 view .LVU129
 484 010e 96ED000A 		vldr.32	s0, [r6]
 485              	.L37:
 170:master_level.cpp ****         {
 486              		.loc 6 170 9 is_stmt 1 view .LVU130
 487 0112 B1EE007A 		vmov.f32	s14, #4.0e+0
 170:master_level.cpp ****         {
 488              		.loc 6 170 38 is_stmt 0 view .LVU131
 489 0116 D5ED007A 		vldr.32	s15, [r5]
 170:master_level.cpp ****         {
 490              		.loc 6 170 9 view .LVU132
 491 011a F4EEC77A 		vcmpe.f32	s15, s14
 492 011e F1EE10FA 		vmrs	APSR_nzcv, FPSCR
 493 0122 C7DD     		ble	.L59
 172:master_level.cpp ****         }
 494              		.loc 6 172 13 is_stmt 1 view .LVU133
 172:master_level.cpp ****         }
 495              		.loc 6 172 38 is_stmt 0 view .LVU134
 496 0124 85ED007A 		vstr.32	s14, [r5]
 174:master_level.cpp ****         {
 497              		.loc 6 174 9 is_stmt 1 view .LVU135
 498 0128 B1EE007A 		vmov.f32	s14, #4.0e+0
 499 012c F7EE007A 		vmov.f32	s15, #1.0e+0
 500 0130 B4EEC70A 		vcmpe.f32	s0, s14
 501 0134 F1EE10FA 		vmrs	APSR_nzcv, FPSCR
 502 0138 C7DD     		ble	.L60
 503              	.L40:
 176:master_level.cpp ****         }
 504              		.loc 6 176 13 view .LVU136
 505 013a B7EE000A 		vmov.f32	s0, #1.0e+0
 176:master_level.cpp ****         }
 506              		.loc 6 176 38 is_stmt 0 view .LVU137
 507 013e 86ED007A 		vstr.32	s14, [r6]
 508 0142 C6E7     		b	.L41
 509              	.L36:
 165:master_level.cpp ****             fft_ready_for_processing_1 = false;
 510              		.loc 6 165 13 is_stmt 1 view .LVU138
 165:master_level.cpp ****             fft_ready_for_processing_1 = false;
 511              		.loc 6 165 72 is_stmt 0 view .LVU139
 512 0144 DFED590A 		vldr.32	s1, .L61+52
 513 0148 4022     		movs	r2, #64
ARM GAS  C:\Users\ryota\AppData\Local\Temp\ccqb3BvA.s 			page 23


 514 014a 9FED590A 		vldr.32	s0, .L61+56
 515 014e 5949     		ldr	r1, .L61+60
 516 0150 4C48     		ldr	r0, .L61+12
 517 0152 FFF7FEFF 		bl	_ZN10FFTLibrary21getFrequencyMagnitudeEPKfjff
 518              	.LVL29:
 166:master_level.cpp ****         }
 519              		.loc 6 166 40 view .LVU140
 520 0156 0023     		movs	r3, #0
 165:master_level.cpp ****             fft_ready_for_processing_1 = false;
 521              		.loc 6 165 38 view .LVU141
 522 0158 86ED000A 		vstr.32	s0, [r6]
 166:master_level.cpp ****         }
 523              		.loc 6 166 13 is_stmt 1 view .LVU142
 166:master_level.cpp ****         }
 524              		.loc 6 166 40 is_stmt 0 view .LVU143
 525 015c 3B70     		strb	r3, [r7]
 526 015e D8E7     		b	.L37
 527              	.L58:
 159:master_level.cpp ****             fft_ready_for_processing_0 = false;
 528              		.loc 6 159 13 is_stmt 1 view .LVU144
 159:master_level.cpp ****             fft_ready_for_processing_0 = false;
 529              		.loc 6 159 72 is_stmt 0 view .LVU145
 530 0160 DFED520A 		vldr.32	s1, .L61+52
 531 0164 4022     		movs	r2, #64
 532 0166 9FED520A 		vldr.32	s0, .L61+56
 533 016a 5349     		ldr	r1, .L61+64
 534 016c 4548     		ldr	r0, .L61+12
 535 016e FFF7FEFF 		bl	_ZN10FFTLibrary21getFrequencyMagnitudeEPKfjff
 536              	.LVL30:
 160:master_level.cpp ****         }
 537              		.loc 6 160 40 view .LVU146
 538 0172 0023     		movs	r3, #0
 159:master_level.cpp ****             fft_ready_for_processing_0 = false;
 539              		.loc 6 159 38 view .LVU147
 540 0174 85ED000A 		vstr.32	s0, [r5]
 160:master_level.cpp ****         }
 541              		.loc 6 160 13 is_stmt 1 view .LVU148
 160:master_level.cpp ****         }
 542              		.loc 6 160 40 is_stmt 0 view .LVU149
 543 0178 88F80030 		strb	r3, [r8]
 544 017c C5E7     		b	.L35
 545              	.LVL31:
 546              	.L57:
 190:master_level.cpp ****         {
 191:master_level.cpp ****             // Print raw magnitudes (for calibration)
 192:master_level.cpp ****             // hw.PrintLine("Raw Mic0: " FLT_FMT3 " Raw Mic1: " FLT_FMT3,
 193:master_level.cpp ****             //             FLT_VAR3(detectedFrequencyLevel_0),
 194:master_level.cpp ****             //             FLT_VAR3(detectedFrequencyLevel_1));
 195:master_level.cpp ****         
 196:master_level.cpp ****             hw.PrintLine("hydrophone_log: Mic0 reads" FLT_FMT3 " Mic1 reads" FLT_FMT3 " Mic2 reads"
 547              		.loc 6 196 13 is_stmt 1 view .LVU150
 197:master_level.cpp ****                         FLT_VAR3(normalizedDetectedFrequencyLevel_0),
 198:master_level.cpp ****                         FLT_VAR3(normalizedDetectedFrequencyLevel_1),
 199:master_level.cpp ****                         FLT_VAR3(normalizedDetectedFrequencyLevel_2),
 548              		.loc 6 199 25 is_stmt 0 view .LVU151
 549 017e 494B     		ldr	r3, .L61+44
 198:master_level.cpp ****                         FLT_VAR3(normalizedDetectedFrequencyLevel_2),
ARM GAS  C:\Users\ryota\AppData\Local\Temp\ccqb3BvA.s 			page 24


 550              		.loc 6 198 25 view .LVU152
 551 0180 DAED005A 		vldr.32	s11, [r10]
 552              		.loc 6 199 25 view .LVU153
 553 0184 D3ED006A 		vldr.32	s13, [r3]
 200:master_level.cpp ****                         FLT_VAR3(normalizedDetectedFrequencyLevel_3));
 554              		.loc 6 200 25 view .LVU154
 555 0188 474B     		ldr	r3, .L61+48
 556              	.LBB114:
 557              	.LBB115:
 558              		.file 7 "c:\\program files\\daisytoolchain\\arm-none-eabi\\include\\c++\\10.2.1\\bits\\std_abs.h"
   1:c:\program files\daisytoolchain\arm-none-eabi\include\c++\10.2.1\bits\std_abs.h **** // -*- C++ -*- C library enhancements header.
   2:c:\program files\daisytoolchain\arm-none-eabi\include\c++\10.2.1\bits\std_abs.h **** 
   3:c:\program files\daisytoolchain\arm-none-eabi\include\c++\10.2.1\bits\std_abs.h **** // Copyright (C) 2016-2020 Free Software Foundation, Inc.
   4:c:\program files\daisytoolchain\arm-none-eabi\include\c++\10.2.1\bits\std_abs.h **** //
   5:c:\program files\daisytoolchain\arm-none-eabi\include\c++\10.2.1\bits\std_abs.h **** // This file is part of the GNU ISO C++ Library.  This library is free
   6:c:\program files\daisytoolchain\arm-none-eabi\include\c++\10.2.1\bits\std_abs.h **** // software; you can redistribute it and/or modify it under the
   7:c:\program files\daisytoolchain\arm-none-eabi\include\c++\10.2.1\bits\std_abs.h **** // terms of the GNU General Public License as published by the
   8:c:\program files\daisytoolchain\arm-none-eabi\include\c++\10.2.1\bits\std_abs.h **** // Free Software Foundation; either version 3, or (at your option)
   9:c:\program files\daisytoolchain\arm-none-eabi\include\c++\10.2.1\bits\std_abs.h **** // any later version.
  10:c:\program files\daisytoolchain\arm-none-eabi\include\c++\10.2.1\bits\std_abs.h **** 
  11:c:\program files\daisytoolchain\arm-none-eabi\include\c++\10.2.1\bits\std_abs.h **** // This library is distributed in the hope that it will be useful,
  12:c:\program files\daisytoolchain\arm-none-eabi\include\c++\10.2.1\bits\std_abs.h **** // but WITHOUT ANY WARRANTY; without even the implied warranty of
  13:c:\program files\daisytoolchain\arm-none-eabi\include\c++\10.2.1\bits\std_abs.h **** // MERCHANTABILITY or FITNESS FOR A PARTICULAR PURPOSE.  See the
  14:c:\program files\daisytoolchain\arm-none-eabi\include\c++\10.2.1\bits\std_abs.h **** // GNU General Public License for more details.
  15:c:\program files\daisytoolchain\arm-none-eabi\include\c++\10.2.1\bits\std_abs.h **** 
  16:c:\program files\daisytoolchain\arm-none-eabi\include\c++\10.2.1\bits\std_abs.h **** // Under Section 7 of GPL version 3, you are granted additional
  17:c:\program files\daisytoolchain\arm-none-eabi\include\c++\10.2.1\bits\std_abs.h **** // permissions described in the GCC Runtime Library Exception, version
  18:c:\program files\daisytoolchain\arm-none-eabi\include\c++\10.2.1\bits\std_abs.h **** // 3.1, as published by the Free Software Foundation.
  19:c:\program files\daisytoolchain\arm-none-eabi\include\c++\10.2.1\bits\std_abs.h **** 
  20:c:\program files\daisytoolchain\arm-none-eabi\include\c++\10.2.1\bits\std_abs.h **** // You should have received a copy of the GNU General Public License and
  21:c:\program files\daisytoolchain\arm-none-eabi\include\c++\10.2.1\bits\std_abs.h **** // a copy of the GCC Runtime Library Exception along with this program;
  22:c:\program files\daisytoolchain\arm-none-eabi\include\c++\10.2.1\bits\std_abs.h **** // see the files COPYING3 and COPYING.RUNTIME respectively.  If not, see
  23:c:\program files\daisytoolchain\arm-none-eabi\include\c++\10.2.1\bits\std_abs.h **** // <http://www.gnu.org/licenses/>.
  24:c:\program files\daisytoolchain\arm-none-eabi\include\c++\10.2.1\bits\std_abs.h **** 
  25:c:\program files\daisytoolchain\arm-none-eabi\include\c++\10.2.1\bits\std_abs.h **** /** @file include/bits/std_abs.h
  26:c:\program files\daisytoolchain\arm-none-eabi\include\c++\10.2.1\bits\std_abs.h ****  *  This is an internal header file, included by other library headers.
  27:c:\program files\daisytoolchain\arm-none-eabi\include\c++\10.2.1\bits\std_abs.h ****  *  Do not attempt to use it directly. @headername{cmath, cstdlib}
  28:c:\program files\daisytoolchain\arm-none-eabi\include\c++\10.2.1\bits\std_abs.h ****  */
  29:c:\program files\daisytoolchain\arm-none-eabi\include\c++\10.2.1\bits\std_abs.h **** 
  30:c:\program files\daisytoolchain\arm-none-eabi\include\c++\10.2.1\bits\std_abs.h **** #ifndef _GLIBCXX_BITS_STD_ABS_H
  31:c:\program files\daisytoolchain\arm-none-eabi\include\c++\10.2.1\bits\std_abs.h **** #define _GLIBCXX_BITS_STD_ABS_H
  32:c:\program files\daisytoolchain\arm-none-eabi\include\c++\10.2.1\bits\std_abs.h **** 
  33:c:\program files\daisytoolchain\arm-none-eabi\include\c++\10.2.1\bits\std_abs.h **** #pragma GCC system_header
  34:c:\program files\daisytoolchain\arm-none-eabi\include\c++\10.2.1\bits\std_abs.h **** 
  35:c:\program files\daisytoolchain\arm-none-eabi\include\c++\10.2.1\bits\std_abs.h **** #include <bits/c++config.h>
  36:c:\program files\daisytoolchain\arm-none-eabi\include\c++\10.2.1\bits\std_abs.h **** 
  37:c:\program files\daisytoolchain\arm-none-eabi\include\c++\10.2.1\bits\std_abs.h **** #define _GLIBCXX_INCLUDE_NEXT_C_HEADERS
  38:c:\program files\daisytoolchain\arm-none-eabi\include\c++\10.2.1\bits\std_abs.h **** #include_next <stdlib.h>
  39:c:\program files\daisytoolchain\arm-none-eabi\include\c++\10.2.1\bits\std_abs.h **** #ifdef __CORRECT_ISO_CPP_MATH_H_PROTO
  40:c:\program files\daisytoolchain\arm-none-eabi\include\c++\10.2.1\bits\std_abs.h **** # include_next <math.h>
  41:c:\program files\daisytoolchain\arm-none-eabi\include\c++\10.2.1\bits\std_abs.h **** #endif
  42:c:\program files\daisytoolchain\arm-none-eabi\include\c++\10.2.1\bits\std_abs.h **** #undef _GLIBCXX_INCLUDE_NEXT_C_HEADERS
  43:c:\program files\daisytoolchain\arm-none-eabi\include\c++\10.2.1\bits\std_abs.h **** 
  44:c:\program files\daisytoolchain\arm-none-eabi\include\c++\10.2.1\bits\std_abs.h **** #undef abs
  45:c:\program files\daisytoolchain\arm-none-eabi\include\c++\10.2.1\bits\std_abs.h **** 
  46:c:\program files\daisytoolchain\arm-none-eabi\include\c++\10.2.1\bits\std_abs.h **** extern "C++"
  47:c:\program files\daisytoolchain\arm-none-eabi\include\c++\10.2.1\bits\std_abs.h **** {
ARM GAS  C:\Users\ryota\AppData\Local\Temp\ccqb3BvA.s 			page 25


  48:c:\program files\daisytoolchain\arm-none-eabi\include\c++\10.2.1\bits\std_abs.h **** namespace std _GLIBCXX_VISIBILITY(default)
  49:c:\program files\daisytoolchain\arm-none-eabi\include\c++\10.2.1\bits\std_abs.h **** {
  50:c:\program files\daisytoolchain\arm-none-eabi\include\c++\10.2.1\bits\std_abs.h **** _GLIBCXX_BEGIN_NAMESPACE_VERSION
  51:c:\program files\daisytoolchain\arm-none-eabi\include\c++\10.2.1\bits\std_abs.h **** 
  52:c:\program files\daisytoolchain\arm-none-eabi\include\c++\10.2.1\bits\std_abs.h ****   using ::abs;
  53:c:\program files\daisytoolchain\arm-none-eabi\include\c++\10.2.1\bits\std_abs.h **** 
  54:c:\program files\daisytoolchain\arm-none-eabi\include\c++\10.2.1\bits\std_abs.h **** #ifndef __CORRECT_ISO_CPP_STDLIB_H_PROTO
  55:c:\program files\daisytoolchain\arm-none-eabi\include\c++\10.2.1\bits\std_abs.h ****   inline long
  56:c:\program files\daisytoolchain\arm-none-eabi\include\c++\10.2.1\bits\std_abs.h ****   abs(long __i) { return __builtin_labs(__i); }
  57:c:\program files\daisytoolchain\arm-none-eabi\include\c++\10.2.1\bits\std_abs.h **** #endif
  58:c:\program files\daisytoolchain\arm-none-eabi\include\c++\10.2.1\bits\std_abs.h **** 
  59:c:\program files\daisytoolchain\arm-none-eabi\include\c++\10.2.1\bits\std_abs.h **** #ifdef _GLIBCXX_USE_LONG_LONG
  60:c:\program files\daisytoolchain\arm-none-eabi\include\c++\10.2.1\bits\std_abs.h ****   inline long long
  61:c:\program files\daisytoolchain\arm-none-eabi\include\c++\10.2.1\bits\std_abs.h ****   abs(long long __x) { return __builtin_llabs (__x); }
  62:c:\program files\daisytoolchain\arm-none-eabi\include\c++\10.2.1\bits\std_abs.h **** #endif
  63:c:\program files\daisytoolchain\arm-none-eabi\include\c++\10.2.1\bits\std_abs.h **** 
  64:c:\program files\daisytoolchain\arm-none-eabi\include\c++\10.2.1\bits\std_abs.h **** // _GLIBCXX_RESOLVE_LIB_DEFECTS
  65:c:\program files\daisytoolchain\arm-none-eabi\include\c++\10.2.1\bits\std_abs.h **** // 2192. Validity and return type of std::abs(0u) is unclear
  66:c:\program files\daisytoolchain\arm-none-eabi\include\c++\10.2.1\bits\std_abs.h **** // 2294. <cstdlib> should declare abs(double)
  67:c:\program files\daisytoolchain\arm-none-eabi\include\c++\10.2.1\bits\std_abs.h **** // 2735. std::abs(short), std::abs(signed char) and others should return int
  68:c:\program files\daisytoolchain\arm-none-eabi\include\c++\10.2.1\bits\std_abs.h **** 
  69:c:\program files\daisytoolchain\arm-none-eabi\include\c++\10.2.1\bits\std_abs.h **** #ifndef __CORRECT_ISO_CPP_MATH_H_PROTO
  70:c:\program files\daisytoolchain\arm-none-eabi\include\c++\10.2.1\bits\std_abs.h ****   inline _GLIBCXX_CONSTEXPR double
  71:c:\program files\daisytoolchain\arm-none-eabi\include\c++\10.2.1\bits\std_abs.h ****   abs(double __x)
  72:c:\program files\daisytoolchain\arm-none-eabi\include\c++\10.2.1\bits\std_abs.h ****   { return __builtin_fabs(__x); }
  73:c:\program files\daisytoolchain\arm-none-eabi\include\c++\10.2.1\bits\std_abs.h **** 
  74:c:\program files\daisytoolchain\arm-none-eabi\include\c++\10.2.1\bits\std_abs.h ****   inline _GLIBCXX_CONSTEXPR float
  75:c:\program files\daisytoolchain\arm-none-eabi\include\c++\10.2.1\bits\std_abs.h ****   abs(float __x)
  76:c:\program files\daisytoolchain\arm-none-eabi\include\c++\10.2.1\bits\std_abs.h ****   { return __builtin_fabsf(__x); }
 559              		.loc 7 76 31 view .LVU155
 560 018a B0EEE55A 		vabs.f32	s10, s11
 561              	.LBE115:
 562              	.LBE114:
 197:master_level.cpp ****                         FLT_VAR3(normalizedDetectedFrequencyLevel_1),
 563              		.loc 6 197 25 view .LVU156
 564 018e DBED004A 		vldr.32	s9, [fp]
 565              	.LBB117:
 566              	.LBB118:
 567              		.loc 7 76 31 view .LVU157
 568 0192 B0EEE66A 		vabs.f32	s12, s13
 569              	.LBE118:
 570              	.LBE117:
 571              		.loc 6 200 25 view .LVU158
 572 0196 D3ED000A 		vldr.32	s1, [r3]
 573              	.LBB120:
 574              	.LBB121:
 575              		.loc 7 76 31 view .LVU159
 576 019a F0EEE47A 		vabs.f32	s15, s9
 577              	.LBE121:
 578              	.LBE120:
 579              	.LBB123:
 580              	.LBB124:
 581              		.loc 1 128 23 view .LVU160
 582 019e 4748     		ldr	r0, .L61+68
 583              	.LVL32:
 584              		.loc 1 128 23 view .LVU161
 585              	.LBE124:
ARM GAS  C:\Users\ryota\AppData\Local\Temp\ccqb3BvA.s 			page 26


 586              	.LBE123:
 587              	.LBB133:
 588              	.LBB134:
 589              		.loc 7 76 31 view .LVU162
 590 01a0 B0EEE07A 		vabs.f32	s14, s1
 591              	.LBE134:
 592              	.LBE133:
 196:master_level.cpp ****                         FLT_VAR3(normalizedDetectedFrequencyLevel_0),
 593              		.loc 6 196 25 view .LVU163
 594 01a4 FDEEC52A 		vcvt.s32.f32	s5, s10
 595 01a8 BDEEC62A 		vcvt.s32.f32	s4, s12
 596 01ac BDEEC71A 		vcvt.s32.f32	s2, s14
 597 01b0 FDEEE71A 		vcvt.s32.f32	s3, s15
 598              	.LBB136:
 599              	.LBB125:
 600              		.loc 1 128 23 view .LVU164
 601 01b4 CDED012A 		vstr.32	s5, [sp, #4]	@ int
 602              	.LBE125:
 603              	.LBE136:
 196:master_level.cpp ****                         FLT_VAR3(normalizedDetectedFrequencyLevel_0),
 604              		.loc 6 196 25 view .LVU165
 605 01b8 F5EEC04A 		vcmpe.f32	s9, #0
 606              	.LBB137:
 607              	.LBB126:
 608              		.loc 1 128 23 view .LVU166
 609 01bc 8DED042A 		vstr.32	s4, [sp, #16]	@ int
 610              	.LBE126:
 611              	.LBE137:
 199:master_level.cpp ****                         FLT_VAR3(normalizedDetectedFrequencyLevel_3));
 612              		.loc 6 199 25 view .LVU167
 613 01c0 B8EEC23A 		vcvt.f32.s32	s6, s4
 614              	.LBB138:
 615              	.LBB127:
 616              		.loc 1 128 23 view .LVU168
 617 01c4 8DED071A 		vstr.32	s2, [sp, #28]	@ int
 618              	.LBE127:
 619              	.LBE138:
 198:master_level.cpp ****                         FLT_VAR3(normalizedDetectedFrequencyLevel_2),
 620              		.loc 6 198 25 view .LVU169
 621 01c8 B8EEE20A 		vcvt.f32.s32	s0, s5
 622              	.LBB139:
 623              	.LBB128:
 624              		.loc 1 128 23 view .LVU170
 625 01cc 11EE902A 		vmov	r2, s3	@ int
 626              	.LBE128:
 627              	.LBE139:
 196:master_level.cpp ****                         FLT_VAR3(normalizedDetectedFrequencyLevel_0),
 628              		.loc 6 196 25 view .LVU171
 629 01d0 F1EE10FA 		vmrs	APSR_nzcv, FPSCR
 197:master_level.cpp ****                         FLT_VAR3(normalizedDetectedFrequencyLevel_1),
 630              		.loc 6 197 25 view .LVU172
 631 01d4 F8EEE13A 		vcvt.f32.s32	s7, s3
 196:master_level.cpp ****                         FLT_VAR3(normalizedDetectedFrequencyLevel_0),
 632              		.loc 6 196 25 view .LVU173
 633 01d8 F5EEC05A 		vcmpe.f32	s11, #0
 634              		.loc 6 200 25 view .LVU174
 635 01dc F8EEC15A 		vcvt.f32.s32	s11, s2
ARM GAS  C:\Users\ryota\AppData\Local\Temp\ccqb3BvA.s 			page 27


 196:master_level.cpp ****                         FLT_VAR3(normalizedDetectedFrequencyLevel_0),
 636              		.loc 6 196 25 view .LVU175
 637 01e0 48BF     		it	mi
 638 01e2 2D21     		movmi	r1, #45
 198:master_level.cpp ****                         FLT_VAR3(normalizedDetectedFrequencyLevel_2),
 639              		.loc 6 198 25 view .LVU176
 640 01e4 35EE405A 		vsub.f32	s10, s10, s0
 196:master_level.cpp ****                         FLT_VAR3(normalizedDetectedFrequencyLevel_0),
 641              		.loc 6 196 25 view .LVU177
 642 01e8 58BF     		it	pl
 643 01ea 2021     		movpl	r1, #32
 644              	.LVL33:
 645              	.LBB140:
 646              	.LBI120:
  75:c:\program files\daisytoolchain\arm-none-eabi\include\c++\10.2.1\bits\std_abs.h ****   { return __builtin_fabsf(__x); }
 647              		.loc 7 75 3 is_stmt 1 view .LVU178
 648              	.LBB122:
 649              		.loc 7 76 5 view .LVU179
 650              		.loc 7 76 5 is_stmt 0 view .LVU180
 651              	.LBE122:
 652              	.LBE140:
 653              	.LBE148:
 654              		.loc 7 76 5 is_stmt 1 view .LVU181
 655              		.loc 7 76 5 view .LVU182
 656              	.LBB149:
 199:master_level.cpp ****                         FLT_VAR3(normalizedDetectedFrequencyLevel_3));
 657              		.loc 6 199 25 is_stmt 0 view .LVU183
 658 01ec 36EE436A 		vsub.f32	s12, s12, s6
 659              		.loc 6 200 25 view .LVU184
 660 01f0 37EE657A 		vsub.f32	s14, s14, s11
 197:master_level.cpp ****                         FLT_VAR3(normalizedDetectedFrequencyLevel_1),
 661              		.loc 6 197 25 view .LVU185
 662 01f4 77EEE33A 		vsub.f32	s7, s15, s7
 196:master_level.cpp ****                         FLT_VAR3(normalizedDetectedFrequencyLevel_0),
 663              		.loc 6 196 25 view .LVU186
 664 01f8 F1EE10FA 		vmrs	APSR_nzcv, FPSCR
 198:master_level.cpp ****                         FLT_VAR3(normalizedDetectedFrequencyLevel_2),
 665              		.loc 6 198 25 view .LVU187
 666 01fc B7EEC55A 		vcvt.f64.f32	d5, s10
 196:master_level.cpp ****                         FLT_VAR3(normalizedDetectedFrequencyLevel_0),
 667              		.loc 6 196 25 view .LVU188
 668 0200 F5EEC06A 		vcmpe.f32	s13, #0
 197:master_level.cpp ****                         FLT_VAR3(normalizedDetectedFrequencyLevel_1),
 669              		.loc 6 197 25 view .LVU189
 670 0204 B7EEE33A 		vcvt.f64.f32	d3, s7
 196:master_level.cpp ****                         FLT_VAR3(normalizedDetectedFrequencyLevel_0),
 671              		.loc 6 196 25 view .LVU190
 672 0208 48BF     		it	mi
 673 020a 2D23     		movmi	r3, #45
 199:master_level.cpp ****                         FLT_VAR3(normalizedDetectedFrequencyLevel_3));
 674              		.loc 6 199 25 view .LVU191
 675 020c B7EEC66A 		vcvt.f64.f32	d6, s12
 196:master_level.cpp ****                         FLT_VAR3(normalizedDetectedFrequencyLevel_0),
 676              		.loc 6 196 25 view .LVU192
 677 0210 58BF     		it	pl
 678 0212 2023     		movpl	r3, #32
 679              	.LVL34:
ARM GAS  C:\Users\ryota\AppData\Local\Temp\ccqb3BvA.s 			page 28


 680              	.LBB141:
 681              	.LBI114:
  75:c:\program files\daisytoolchain\arm-none-eabi\include\c++\10.2.1\bits\std_abs.h ****   { return __builtin_fabsf(__x); }
 682              		.loc 7 75 3 is_stmt 1 view .LVU193
 683              	.LBB116:
 684              		.loc 7 76 5 view .LVU194
 685              		.loc 7 76 5 is_stmt 0 view .LVU195
 686              	.LBE116:
 687              	.LBE141:
 688              	.LBE149:
 689              		.loc 7 76 5 is_stmt 1 view .LVU196
 690              		.loc 7 76 5 view .LVU197
 691              	.LBB150:
 692              		.loc 6 200 25 is_stmt 0 view .LVU198
 693 0214 B7EEC77A 		vcvt.f64.f32	d7, s14
 196:master_level.cpp ****                         FLT_VAR3(normalizedDetectedFrequencyLevel_0),
 694              		.loc 6 196 25 view .LVU199
 695 0218 F1EE10FA 		vmrs	APSR_nzcv, FPSCR
 696              	.LBB142:
 697              	.LBB129:
 698              		.loc 1 128 23 view .LVU200
 699 021c 0093     		str	r3, [sp]
 700              	.LBE129:
 701              	.LBE142:
 196:master_level.cpp ****                         FLT_VAR3(normalizedDetectedFrequencyLevel_0),
 702              		.loc 6 196 25 view .LVU201
 703 021e F5EEC00A 		vcmpe.f32	s1, #0
 197:master_level.cpp ****                         FLT_VAR3(normalizedDetectedFrequencyLevel_1),
 704              		.loc 6 197 25 view .LVU202
 705 0222 9FED154B 		vldr.64	d4, .L61
 196:master_level.cpp ****                         FLT_VAR3(normalizedDetectedFrequencyLevel_0),
 706              		.loc 6 196 25 view .LVU203
 707 0226 4CBF     		ite	mi
 708 0228 2D23     		movmi	r3, #45
 709 022a 2023     		movpl	r3, #32
 710 022c F1EE10FA 		vmrs	APSR_nzcv, FPSCR
 198:master_level.cpp ****                         FLT_VAR3(normalizedDetectedFrequencyLevel_2),
 711              		.loc 6 198 25 view .LVU204
 712 0230 25EE045B 		vmul.f64	d5, d5, d4
 713              	.LBB143:
 714              	.LBB130:
 715              		.loc 1 128 23 view .LVU205
 716 0234 0393     		str	r3, [sp, #12]
 717              	.LBE130:
 718              	.LBE143:
 196:master_level.cpp ****                         FLT_VAR3(normalizedDetectedFrequencyLevel_0),
 719              		.loc 6 196 25 view .LVU206
 720 0236 4CBF     		ite	mi
 721 0238 2D23     		movmi	r3, #45
 722 023a 2023     		movpl	r3, #32
 199:master_level.cpp ****                         FLT_VAR3(normalizedDetectedFrequencyLevel_3));
 723              		.loc 6 199 25 view .LVU207
 724 023c 26EE046B 		vmul.f64	d6, d6, d4
 725              	.LBB144:
 726              	.LBB131:
 727              		.loc 1 128 23 view .LVU208
 728 0240 0693     		str	r3, [sp, #24]
ARM GAS  C:\Users\ryota\AppData\Local\Temp\ccqb3BvA.s 			page 29


 729              	.LBE131:
 730              	.LBE144:
 731              		.loc 6 200 25 view .LVU209
 732 0242 27EE047B 		vmul.f64	d7, d7, d4
 197:master_level.cpp ****                         FLT_VAR3(normalizedDetectedFrequencyLevel_1),
 733              		.loc 6 197 25 view .LVU210
 734 0246 23EE044B 		vmul.f64	d4, d3, d4
 196:master_level.cpp ****                         FLT_VAR3(normalizedDetectedFrequencyLevel_0),
 735              		.loc 6 196 25 view .LVU211
 736 024a BDEEC77B 		vcvt.s32.f64	s14, d7
 737 024e BDEEC55B 		vcvt.s32.f64	s10, d5
 738              	.LVL35:
 739              	.LBB145:
 740              	.LBI117:
  75:c:\program files\daisytoolchain\arm-none-eabi\include\c++\10.2.1\bits\std_abs.h ****   { return __builtin_fabsf(__x); }
 741              		.loc 7 75 3 is_stmt 1 view .LVU212
 742              	.LBB119:
 743              		.loc 7 76 5 view .LVU213
 744              		.loc 7 76 5 is_stmt 0 view .LVU214
 745              	.LBE119:
 746              	.LBE145:
 747              	.LBE150:
 748              		.loc 7 76 5 is_stmt 1 view .LVU215
 749              		.loc 7 76 5 view .LVU216
 750              	.LBB151:
 196:master_level.cpp ****                         FLT_VAR3(normalizedDetectedFrequencyLevel_0),
 751              		.loc 6 196 25 is_stmt 0 view .LVU217
 752 0252 BDEEC66B 		vcvt.s32.f64	s12, d6
 753              	.LVL36:
 754              	.LBB146:
 755              	.LBI133:
  75:c:\program files\daisytoolchain\arm-none-eabi\include\c++\10.2.1\bits\std_abs.h ****   { return __builtin_fabsf(__x); }
 756              		.loc 7 75 3 is_stmt 1 view .LVU218
 757              	.LBB135:
 758              		.loc 7 76 5 view .LVU219
 759              		.loc 7 76 5 is_stmt 0 view .LVU220
 760              	.LBE135:
 761              	.LBE146:
 762              	.LBE151:
 763              		.loc 7 76 5 is_stmt 1 view .LVU221
 764              		.loc 7 76 5 view .LVU222
 765              	.LBB152:
 766              	.LBB147:
 767              	.LBI123:
 126:../../libDaisy//src/daisy_seed.h ****     {
 768              		.loc 1 126 17 view .LVU223
 769              	.LBB132:
 770              		.loc 1 128 23 is_stmt 0 view .LVU224
 771 0256 FDEEC47B 		vcvt.s32.f64	s15, d4
 772              	.LVL37:
 773              		.loc 1 128 23 view .LVU225
 774 025a 8DED087A 		vstr.32	s14, [sp, #32]	@ int
 775 025e 8DED025A 		vstr.32	s10, [sp, #8]	@ int
 776 0262 8DED056A 		vstr.32	s12, [sp, #20]	@ int
 777 0266 17EE903A 		vmov	r3, s15	@ int
 778 026a FFF7FEFF 		bl	_ZN5daisy6LoggerILNS_17LoggerDestinationE1EE9PrintLineEPKcz
 779              	.LVL38:
ARM GAS  C:\Users\ryota\AppData\Local\Temp\ccqb3BvA.s 			page 30


 780              		.loc 1 128 23 view .LVU226
 781              	.LBE132:
 782              	.LBE147:
 201:master_level.cpp ****             lastPrintTime = currentTime;
 783              		.loc 6 201 13 is_stmt 1 view .LVU227
 784              		.loc 6 201 27 is_stmt 0 view .LVU228
 785 026e C9F80040 		str	r4, [r9]
 786 0272 47E7     		b	.L42
 787              	.L62:
 788 0274 AFF30080 		.align	3
 789              	.L61:
 790 0278 00000000 		.word	0
 791 027c 00408F40 		.word	1083129856
 792 0280 00000000 		.word	.LANCHOR5
 793 0284 00000000 		.word	.LANCHOR6
 794 0288 00000000 		.word	_Z10MyCallbackPKPKfPPfj
 795 028c 00000000 		.word	.LC0
 796 0290 20000000 		.word	.LC1
 797 0294 18000000 		.word	.LANCHOR5+24
 798 0298 00000000 		.word	.LANCHOR8
 799 029c 00000000 		.word	.LANCHOR2
 800 02a0 00000000 		.word	.LANCHOR9
 801 02a4 00000000 		.word	.LANCHOR12
 802 02a8 00000000 		.word	.LANCHOR13
 803 02ac 0AD7233C 		.word	1008981770
 804 02b0 0050C346 		.word	1187205120
 805 02b4 00010000 		.word	.LANCHOR4+256
 806 02b8 00000000 		.word	.LANCHOR4
 807 02bc 54000000 		.word	.LC2
 808 02c0 00000000 		.word	.LANCHOR7
 809 02c4 00000000 		.word	.LANCHOR0
 810 02c8 00000000 		.word	.LANCHOR10
 811 02cc 00000000 		.word	.LANCHOR11
 812              	.LBE152:
 813              		.cfi_endproc
 814              	.LFE5444:
 816              		.section	.text.startup._GLOBAL__sub_I_hw,"ax",%progbits
 817              		.align	1
 818              		.p2align 2,,3
 819              		.syntax unified
 820              		.thumb
 821              		.thumb_func
 822              		.fpu fpv5-d16
 824              	_GLOBAL__sub_I_hw:
 825              	.LFB6038:
 202:master_level.cpp ****         }
 203:master_level.cpp ****     }
 204:master_level.cpp **** } ...
 826              		.loc 6 204 1 is_stmt 1 view -0
 827              		.cfi_startproc
 828              		@ args = 0, pretend = 0, frame = 0
 829              		@ frame_needed = 0, uses_anonymous_args = 0
 830              	.LBB174:
 831              	.LBI174:
 832              		.loc 6 204 1 view .LVU230
 833              	.LVL39:
 834              	.LBB175:
ARM GAS  C:\Users\ryota\AppData\Local\Temp\ccqb3BvA.s 			page 31


 835              	.LBB176:
 836              	.LBI176:
  21:../../libDaisy//src/daisy_seed.h ****     ~DaisySeed() {}
 837              		.loc 1 21 5 view .LVU231
 838              	.LBB177:
 839              	.LBB178:
 840              	.LBI178:
 841              		.file 8 "../../libDaisy//src/per/qspi.h"
   1:../../libDaisy//src/per/qspi.h **** #ifndef DSY_QSPI
   2:../../libDaisy//src/per/qspi.h **** #define DSY_QSPI /**< Macro */
   3:../../libDaisy//src/per/qspi.h **** 
   4:../../libDaisy//src/per/qspi.h **** #ifndef UNIT_TEST // for unit tests, a dummy implementation
   5:../../libDaisy//src/per/qspi.h **** 
   6:../../libDaisy//src/per/qspi.h **** #include <cstdint>
   7:../../libDaisy//src/per/qspi.h **** #include "daisy_core.h" // Added for dsy_gpio_pin typedef
   8:../../libDaisy//src/per/qspi.h **** 
   9:../../libDaisy//src/per/qspi.h **** #define DSY_QSPI_TEXT       \
  10:../../libDaisy//src/per/qspi.h ****     __attribute__((section( \
  11:../../libDaisy//src/per/qspi.h ****         ".qspiflash_text"))) /**< used for reading memory in memory_mapped mode. */
  12:../../libDaisy//src/per/qspi.h **** #define DSY_QSPI_DATA       \
  13:../../libDaisy//src/per/qspi.h ****     __attribute__((section( \
  14:../../libDaisy//src/per/qspi.h ****         ".qspiflash_data"))) /**< used for reading memory in memory_mapped mode. */
  15:../../libDaisy//src/per/qspi.h **** #define DSY_QSPI_BSS        \
  16:../../libDaisy//src/per/qspi.h ****     __attribute__((section( \
  17:../../libDaisy//src/per/qspi.h ****         ".qspiflash_bss"))) /**< used for reading memory in memory_mapped mode. */
  18:../../libDaisy//src/per/qspi.h **** 
  19:../../libDaisy//src/per/qspi.h **** namespace daisy
  20:../../libDaisy//src/per/qspi.h **** {
  21:../../libDaisy//src/per/qspi.h **** /** @addtogroup serial
  22:../../libDaisy//src/per/qspi.h **** @{
  23:../../libDaisy//src/per/qspi.h **** */
  24:../../libDaisy//src/per/qspi.h **** 
  25:../../libDaisy//src/per/qspi.h **** /** 
  26:../../libDaisy//src/per/qspi.h ****  Driver for QSPI peripheral to interface with external flash memory. \n 
  27:../../libDaisy//src/per/qspi.h ****     Currently supported QSPI Devices: \n 
  28:../../libDaisy//src/per/qspi.h ****     * IS25LP080D
  29:../../libDaisy//src/per/qspi.h **** */
  30:../../libDaisy//src/per/qspi.h **** class QSPIHandle
  31:../../libDaisy//src/per/qspi.h **** {
  32:../../libDaisy//src/per/qspi.h ****   public:
  33:../../libDaisy//src/per/qspi.h ****     enum Result
  34:../../libDaisy//src/per/qspi.h ****     {
  35:../../libDaisy//src/per/qspi.h ****         OK = 0,
  36:../../libDaisy//src/per/qspi.h ****         ERR
  37:../../libDaisy//src/per/qspi.h ****     };
  38:../../libDaisy//src/per/qspi.h **** 
  39:../../libDaisy//src/per/qspi.h ****     /** Indicates the current status of the module. 
  40:../../libDaisy//src/per/qspi.h ****          *  Warnings are indicated by a leading W.
  41:../../libDaisy//src/per/qspi.h ****          *  Errors are indicated by a leading E and cause an immediate exit.
  42:../../libDaisy//src/per/qspi.h ****          * 
  43:../../libDaisy//src/per/qspi.h ****          *  \param GOOD - No errors have been reported.
  44:../../libDaisy//src/per/qspi.h ****          *  \param E_HAL_ERROR - HAL code did not return HAL_OK.
  45:../../libDaisy//src/per/qspi.h ****          *  \param E_SWITCHING_MODES - An error was encountered while switching QSPI peripheral mod
  46:../../libDaisy//src/per/qspi.h ****          *  \param E_INVALID_MODE - QSPI should not be written to while the program is executing fr
  47:../../libDaisy//src/per/qspi.h ****          */
  48:../../libDaisy//src/per/qspi.h ****     enum Status
  49:../../libDaisy//src/per/qspi.h ****     {
ARM GAS  C:\Users\ryota\AppData\Local\Temp\ccqb3BvA.s 			page 32


  50:../../libDaisy//src/per/qspi.h ****         GOOD = 0,
  51:../../libDaisy//src/per/qspi.h ****         E_HAL_ERROR,
  52:../../libDaisy//src/per/qspi.h ****         E_SWITCHING_MODES,
  53:../../libDaisy//src/per/qspi.h ****         E_INVALID_MODE,
  54:../../libDaisy//src/per/qspi.h ****     };
  55:../../libDaisy//src/per/qspi.h **** 
  56:../../libDaisy//src/per/qspi.h ****     /** Configuration structure for interfacing with QSPI Driver */
  57:../../libDaisy//src/per/qspi.h ****     struct Config
  58:../../libDaisy//src/per/qspi.h ****     {
  59:../../libDaisy//src/per/qspi.h ****         /** Flash Devices supported. (Both of these are more-or-less the same, just different sizes
  60:../../libDaisy//src/per/qspi.h ****         enum Device
  61:../../libDaisy//src/per/qspi.h ****         {
  62:../../libDaisy//src/per/qspi.h ****             IS25LP080D,  /**< & */
  63:../../libDaisy//src/per/qspi.h ****             IS25LP064A,  /**< & */
  64:../../libDaisy//src/per/qspi.h ****             DEVICE_LAST, /**< & */
  65:../../libDaisy//src/per/qspi.h ****         };
  66:../../libDaisy//src/per/qspi.h **** 
  67:../../libDaisy//src/per/qspi.h ****         /** 
  68:../../libDaisy//src/per/qspi.h ****         Modes of operation.
  69:../../libDaisy//src/per/qspi.h ****         Memory Mapped mode: QSPI configured so that the QSPI can be
  70:../../libDaisy//src/per/qspi.h ****         read from starting address 0x90000000. Writing is not
  71:../../libDaisy//src/per/qspi.h ****         possible in this mode. \n 
  72:../../libDaisy//src/per/qspi.h ****         Indirect Polling mode: Device driver enabled. 
  73:../../libDaisy//src/per/qspi.h ****         */
  74:../../libDaisy//src/per/qspi.h ****         enum Mode
  75:../../libDaisy//src/per/qspi.h ****         {
  76:../../libDaisy//src/per/qspi.h ****             MEMORY_MAPPED,    /**< & */
  77:../../libDaisy//src/per/qspi.h ****             INDIRECT_POLLING, /**< & */
  78:../../libDaisy//src/per/qspi.h ****             MODE_LAST,
  79:../../libDaisy//src/per/qspi.h ****         };
  80:../../libDaisy//src/per/qspi.h **** 
  81:../../libDaisy//src/per/qspi.h ****         //SCK,  CE# (active low)
  82:../../libDaisy//src/per/qspi.h ****         struct
  83:../../libDaisy//src/per/qspi.h ****         {
  84:../../libDaisy//src/per/qspi.h ****             dsy_gpio_pin io0; /**< & */
  85:../../libDaisy//src/per/qspi.h ****             dsy_gpio_pin io1; /**< & */
  86:../../libDaisy//src/per/qspi.h ****             dsy_gpio_pin io2; /**< & */
  87:../../libDaisy//src/per/qspi.h ****             dsy_gpio_pin io3; /**< & */
  88:../../libDaisy//src/per/qspi.h ****             dsy_gpio_pin clk; /**< & */
  89:../../libDaisy//src/per/qspi.h ****             dsy_gpio_pin ncs; /**< & */
  90:../../libDaisy//src/per/qspi.h ****         } pin_config;
  91:../../libDaisy//src/per/qspi.h **** 
  92:../../libDaisy//src/per/qspi.h ****         Device device;
  93:../../libDaisy//src/per/qspi.h ****         Mode   mode;
  94:../../libDaisy//src/per/qspi.h ****     };
  95:../../libDaisy//src/per/qspi.h **** 
  96:../../libDaisy//src/per/qspi.h ****     /** 
  97:../../libDaisy//src/per/qspi.h ****         Initializes QSPI peripheral, and Resets, and prepares memory for access.
  98:../../libDaisy//src/per/qspi.h ****         \param config should be populated with the mode, device and pin_config before calling this 
  99:../../libDaisy//src/per/qspi.h ****         \return Result::OK or Result::ERR
 100:../../libDaisy//src/per/qspi.h ****         */
 101:../../libDaisy//src/per/qspi.h ****     Result Init(const Config& config);
 102:../../libDaisy//src/per/qspi.h **** 
 103:../../libDaisy//src/per/qspi.h ****     /** Returns the current config. */
 104:../../libDaisy//src/per/qspi.h ****     const Config& GetConfig() const;
 105:../../libDaisy//src/per/qspi.h **** 
 106:../../libDaisy//src/per/qspi.h ****     // Couldn't this just be called before anything else in init? That
ARM GAS  C:\Users\ryota\AppData\Local\Temp\ccqb3BvA.s 			page 33


 107:../../libDaisy//src/per/qspi.h ****     // would make manually calling it unnecessary.
 108:../../libDaisy//src/per/qspi.h ****     /** 
 109:../../libDaisy//src/per/qspi.h ****         Deinitializes the peripheral
 110:../../libDaisy//src/per/qspi.h ****         This should be called before reinitializing QSPI in a different mode.
 111:../../libDaisy//src/per/qspi.h ****         \return Result::OK or Result::ERR
 112:../../libDaisy//src/per/qspi.h ****         */
 113:../../libDaisy//src/per/qspi.h ****     Result DeInit();
 114:../../libDaisy//src/per/qspi.h **** 
 115:../../libDaisy//src/per/qspi.h ****     /** 
 116:../../libDaisy//src/per/qspi.h ****         Writes a single page to to the specified address on the QSPI chip.
 117:../../libDaisy//src/per/qspi.h ****         For IS25LP*, page size is 256 bytes.
 118:../../libDaisy//src/per/qspi.h ****         \param address Address to write to
 119:../../libDaisy//src/per/qspi.h ****         \param size Buffer size
 120:../../libDaisy//src/per/qspi.h ****         \param buffer Buffer to write
 121:../../libDaisy//src/per/qspi.h ****         \return Result::OK or Result::ERR
 122:../../libDaisy//src/per/qspi.h ****         */
 123:../../libDaisy//src/per/qspi.h ****     Result WritePage(uint32_t address, uint32_t size, uint8_t* buffer);
 124:../../libDaisy//src/per/qspi.h **** 
 125:../../libDaisy//src/per/qspi.h ****     /** 
 126:../../libDaisy//src/per/qspi.h ****         Writes data in buffer to to the QSPI. Starting at address to address+size 
 127:../../libDaisy//src/per/qspi.h ****         \param address Address to write to
 128:../../libDaisy//src/per/qspi.h ****         \param size Buffer size
 129:../../libDaisy//src/per/qspi.h ****         \param buffer Buffer to write
 130:../../libDaisy//src/per/qspi.h ****         \return Result::OK or Result::ERR
 131:../../libDaisy//src/per/qspi.h ****         */
 132:../../libDaisy//src/per/qspi.h ****     Result Write(uint32_t address, uint32_t size, uint8_t* buffer);
 133:../../libDaisy//src/per/qspi.h **** 
 134:../../libDaisy//src/per/qspi.h ****     /** 
 135:../../libDaisy//src/per/qspi.h ****         Erases the area specified on the chip.
 136:../../libDaisy//src/per/qspi.h ****         Erasures will happen by 4K, 32K or 64K increments.
 137:../../libDaisy//src/per/qspi.h ****         Smallest erase possible is 4kB at a time. (on IS25LP*)
 138:../../libDaisy//src/per/qspi.h ****         \param start_addr Address to begin erasing from
 139:../../libDaisy//src/per/qspi.h ****         \param end_addr  Address to stop erasing at
 140:../../libDaisy//src/per/qspi.h ****         \return Result::OK or Result::ERR
 141:../../libDaisy//src/per/qspi.h ****         */
 142:../../libDaisy//src/per/qspi.h ****     Result Erase(uint32_t start_addr, uint32_t end_addr);
 143:../../libDaisy//src/per/qspi.h **** 
 144:../../libDaisy//src/per/qspi.h ****     /**  
 145:../../libDaisy//src/per/qspi.h ****          Erases a single sector of the chip.  
 146:../../libDaisy//src/per/qspi.h ****         TODO: Document the size of this function. 
 147:../../libDaisy//src/per/qspi.h ****         \param address Address of sector to erase
 148:../../libDaisy//src/per/qspi.h ****         \return Result::OK or Result::ERR
 149:../../libDaisy//src/per/qspi.h ****         */
 150:../../libDaisy//src/per/qspi.h ****     Result EraseSector(uint32_t address);
 151:../../libDaisy//src/per/qspi.h **** 
 152:../../libDaisy//src/per/qspi.h ****     /** Returns the current class status. Useful for debugging.
 153:../../libDaisy//src/per/qspi.h ****      *  \returns Status
 154:../../libDaisy//src/per/qspi.h ****      */
 155:../../libDaisy//src/per/qspi.h ****     Status GetStatus();
 156:../../libDaisy//src/per/qspi.h **** 
 157:../../libDaisy//src/per/qspi.h ****     /** Returns a pointer to the actual memory used 
 158:../../libDaisy//src/per/qspi.h ****      *  The memory at this address is read-only
 159:../../libDaisy//src/per/qspi.h ****      *  to write to it use the Write function.
 160:../../libDaisy//src/per/qspi.h ****      * 
 161:../../libDaisy//src/per/qspi.h ****      *  \param offset returns the pointer starting this 
 162:../../libDaisy//src/per/qspi.h ****      *                many bytes into the memory
 163:../../libDaisy//src/per/qspi.h ****     */
ARM GAS  C:\Users\ryota\AppData\Local\Temp\ccqb3BvA.s 			page 34


 164:../../libDaisy//src/per/qspi.h ****     void* GetData(uint32_t offset = 0);
 165:../../libDaisy//src/per/qspi.h **** 
 166:../../libDaisy//src/per/qspi.h ****     QSPIHandle() : pimpl_(nullptr) {}
 842              		.loc 8 166 5 view .LVU232
 843              	.LBE178:
 844              	.LBE177:
 845              	.LBE176:
 846              	.LBE175:
 847              	.LBE174:
 848              		.loc 6 204 1 is_stmt 0 view .LVU233
 849 0000 08B5     		push	{r3, lr}
 850              		.cfi_def_cfa_offset 8
 851              		.cfi_offset 3, -8
 852              		.cfi_offset 14, -4
 853              	.LBB203:
 854              	.LBB201:
 855              	.LBB199:
 856              	.LBB197:
 857              	.LBB183:
 858              	.LBB179:
 859              	.LBB180:
 860              		.loc 8 166 34 view .LVU234
 861 0002 0848     		ldr	r0, .L65
 862 0004 0023     		movs	r3, #0
 863              	.LBE180:
 864              	.LBE179:
 865              	.LBE183:
 866              	.LBE197:
 867              	.LBE199:
  53:master_level.cpp **** DaisySeed hw;
 868              		.loc 6 53 11 view .LVU235
 869 0006 084A     		ldr	r2, .L65+4
 870              	.LBB200:
 871              	.LBB198:
 872              	.LBB184:
 873              	.LBB182:
 874              	.LBB181:
 875              		.loc 8 166 34 view .LVU236
 876 0008 0360     		str	r3, [r0]
 877              	.LVL40:
 878              		.loc 8 166 34 view .LVU237
 879              	.LBE181:
 880              	.LBE182:
 881              	.LBE184:
 882              	.LBB185:
 883              	.LBI185:
  95:../../libDaisy//src/hid/audio.h ****     ~AudioHandle() {}
 884              		.loc 5 95 5 is_stmt 1 view .LVU238
 885              	.LBB186:
 886              	.LBB187:
  95:../../libDaisy//src/hid/audio.h ****     ~AudioHandle() {}
 887              		.loc 5 95 35 is_stmt 0 view .LVU239
 888 000a 4361     		str	r3, [r0, #20]
 889              	.LVL41:
  95:../../libDaisy//src/hid/audio.h ****     ~AudioHandle() {}
 890              		.loc 5 95 35 view .LVU240
 891              	.LBE187:
ARM GAS  C:\Users\ryota\AppData\Local\Temp\ccqb3BvA.s 			page 35


 892              	.LBE186:
 893              	.LBE185:
 894              	.LBB188:
 895              	.LBI188:
 109:../../libDaisy//src/per/adc.h ****     ~AdcHandle() {}
 896              		.loc 4 109 5 is_stmt 1 view .LVU241
 109:../../libDaisy//src/per/adc.h ****     ~AdcHandle() {}
 897              		.loc 4 109 5 is_stmt 0 view .LVU242
 898              	.LBE188:
 899              	.LBB189:
 900              	.LBI189:
 901              		.file 9 "../../libDaisy//src/per/dac.h"
   1:../../libDaisy//src/per/dac.h **** #pragma once
   2:../../libDaisy//src/per/dac.h **** #ifndef DSY_DAC_H
   3:../../libDaisy//src/per/dac.h **** #define DSY_DAC_H
   4:../../libDaisy//src/per/dac.h **** 
   5:../../libDaisy//src/per/dac.h **** #include "daisy_core.h"
   6:../../libDaisy//src/per/dac.h **** 
   7:../../libDaisy//src/per/dac.h **** namespace daisy
   8:../../libDaisy//src/per/dac.h **** {
   9:../../libDaisy//src/per/dac.h **** /** @brief DAC handle for Built-in DAC Peripheral 
  10:../../libDaisy//src/per/dac.h ****  *  @ingroup per_analog
  11:../../libDaisy//src/per/dac.h ****  ** 
  12:../../libDaisy//src/per/dac.h ****  ** For now only Normal Mode is supported,
  13:../../libDaisy//src/per/dac.h ****  ** Sample and hold mode provides reduced power consumption, but requires a bit more setup.
  14:../../libDaisy//src/per/dac.h ****  **
  15:../../libDaisy//src/per/dac.h ****  ** For now connecting the DAC through other internal peripherals is also not supported.
  16:../../libDaisy//src/per/dac.h ****  **
  17:../../libDaisy//src/per/dac.h ****  ** Since the DAC channels have dedicated pins we don't need to pass in a pin config like with
  18:../../libDaisy//src/per/dac.h ****  ** other modules. However, it is still important to not try to use the DAC pins for anything else.
  19:../../libDaisy//src/per/dac.h ****  ** DAC Channel 1 is on PA4, and DAC Channel 2 is on PA5
  20:../../libDaisy//src/per/dac.h ****  ***/
  21:../../libDaisy//src/per/dac.h **** class DacHandle
  22:../../libDaisy//src/per/dac.h **** {
  23:../../libDaisy//src/per/dac.h ****   public:
  24:../../libDaisy//src/per/dac.h ****     /** Return Values for the DacHandle class */
  25:../../libDaisy//src/per/dac.h ****     enum class Result
  26:../../libDaisy//src/per/dac.h ****     {
  27:../../libDaisy//src/per/dac.h ****         OK,
  28:../../libDaisy//src/per/dac.h ****         ERR,
  29:../../libDaisy//src/per/dac.h ****     };
  30:../../libDaisy//src/per/dac.h **** 
  31:../../libDaisy//src/per/dac.h ****     /** Selects which channel(s) will be configured for use. */
  32:../../libDaisy//src/per/dac.h ****     enum class Channel
  33:../../libDaisy//src/per/dac.h ****     {
  34:../../libDaisy//src/per/dac.h ****         ONE,
  35:../../libDaisy//src/per/dac.h ****         TWO,
  36:../../libDaisy//src/per/dac.h ****         BOTH,
  37:../../libDaisy//src/per/dac.h ****     };
  38:../../libDaisy//src/per/dac.h **** 
  39:../../libDaisy//src/per/dac.h ****     /** Sets the Mode for the DAC channels.
  40:../../libDaisy//src/per/dac.h ****      **
  41:../../libDaisy//src/per/dac.h ****      ** Polling mode uses the blocking mode to transmit a single value at a time.
  42:../../libDaisy//src/per/dac.h ****      **
  43:../../libDaisy//src/per/dac.h ****      ** DMA mode uses a buffer, and periodically transmits it triggering a 
  44:../../libDaisy//src/per/dac.h ****      ** callback to fill the buffer when it is ready for more samples.
  45:../../libDaisy//src/per/dac.h ****      ***/
ARM GAS  C:\Users\ryota\AppData\Local\Temp\ccqb3BvA.s 			page 36


  46:../../libDaisy//src/per/dac.h ****     enum class Mode
  47:../../libDaisy//src/per/dac.h ****     {
  48:../../libDaisy//src/per/dac.h ****         POLLING,
  49:../../libDaisy//src/per/dac.h ****         DMA,
  50:../../libDaisy//src/per/dac.h ****     };
  51:../../libDaisy//src/per/dac.h **** 
  52:../../libDaisy//src/per/dac.h ****     /** Sets the number of bits per sample transmitted out of the DAC.
  53:../../libDaisy//src/per/dac.h ****      ** The output range will be: 0V - VDDA
  54:../../libDaisy//src/per/dac.h ****      ** The resolution will be roughly: bitdepth / (VDDA - 0V) 
  55:../../libDaisy//src/per/dac.h ****      ***/
  56:../../libDaisy//src/per/dac.h ****     enum class BitDepth
  57:../../libDaisy//src/per/dac.h ****     {
  58:../../libDaisy//src/per/dac.h ****         BITS_8,
  59:../../libDaisy//src/per/dac.h ****         BITS_12
  60:../../libDaisy//src/per/dac.h ****     };
  61:../../libDaisy//src/per/dac.h **** 
  62:../../libDaisy//src/per/dac.h ****     /** Sets whether the DAC output is buffered for higher drive ability. */
  63:../../libDaisy//src/per/dac.h ****     enum class BufferState
  64:../../libDaisy//src/per/dac.h ****     {
  65:../../libDaisy//src/per/dac.h ****         ENABLED,
  66:../../libDaisy//src/per/dac.h ****         DISABLED,
  67:../../libDaisy//src/per/dac.h ****     };
  68:../../libDaisy//src/per/dac.h **** 
  69:../../libDaisy//src/per/dac.h ****     /** Configuration structure for initializing the DAC structure. */
  70:../../libDaisy//src/per/dac.h ****     struct Config
  71:../../libDaisy//src/per/dac.h ****     {
  72:../../libDaisy//src/per/dac.h ****         /** Target Samplerate in Hz used to configure the internal 
  73:../../libDaisy//src/per/dac.h ****          ** timebase for DMA mode. Does nothing in POLLING mode.
  74:../../libDaisy//src/per/dac.h ****          ** If the value is 0 at Init time this will default to 48000Hz 
  75:../../libDaisy//src/per/dac.h ****          ** otherwise the driver will attempt meet the target.*/
  76:../../libDaisy//src/per/dac.h ****         uint32_t target_samplerate;
  77:../../libDaisy//src/per/dac.h **** 
  78:../../libDaisy//src/per/dac.h ****         Channel     chn;
  79:../../libDaisy//src/per/dac.h ****         Mode        mode;
  80:../../libDaisy//src/per/dac.h ****         BitDepth    bitdepth;
  81:../../libDaisy//src/per/dac.h ****         BufferState buff_state;
  82:../../libDaisy//src/per/dac.h ****     };
  83:../../libDaisy//src/per/dac.h **** 
  84:../../libDaisy//src/per/dac.h ****     DacHandle() : pimpl_(nullptr) {}
 902              		.loc 9 84 5 is_stmt 1 view .LVU243
 903              	.LBB190:
 904              	.LBB191:
 905              		.loc 9 84 33 is_stmt 0 view .LVU244
 906 000c 0362     		str	r3, [r0, #32]
 907              	.LVL42:
 908              		.loc 9 84 33 view .LVU245
 909              	.LBE191:
 910              	.LBE190:
 911              	.LBE189:
 912              	.LBB192:
 913              	.LBI192:
  40:../../libDaisy//src/hid/usb.h **** 
 914              		.loc 3 40 5 is_stmt 1 view .LVU246
  40:../../libDaisy//src/hid/usb.h **** 
 915              		.loc 3 40 5 is_stmt 0 view .LVU247
 916              	.LBE192:
 917              	.LBB193:
ARM GAS  C:\Users\ryota\AppData\Local\Temp\ccqb3BvA.s 			page 37


 918              	.LBI193:
  96:../../libDaisy//src/sys/system.h ****     ~System() {}
 919              		.loc 2 96 5 is_stmt 1 view .LVU248
  96:../../libDaisy//src/sys/system.h ****     ~System() {}
 920              		.loc 2 96 5 is_stmt 0 view .LVU249
 921              	.LBE193:
 922              	.LBB194:
 923              	.LBI194:
 924              		.file 10 "../../libDaisy//src/per/sai.h"
   1:../../libDaisy//src/per/sai.h **** #pragma once
   2:../../libDaisy//src/per/sai.h **** #ifndef DSY_SAI_H
   3:../../libDaisy//src/per/sai.h **** #define DSY_SAI_H
   4:../../libDaisy//src/per/sai.h **** 
   5:../../libDaisy//src/per/sai.h **** #include "daisy_core.h"
   6:../../libDaisy//src/per/sai.h **** 
   7:../../libDaisy//src/per/sai.h **** namespace daisy
   8:../../libDaisy//src/per/sai.h **** {
   9:../../libDaisy//src/per/sai.h **** /** 
  10:../../libDaisy//src/per/sai.h ****  * Support for I2S Audio Protocol with different bit-depth, samplerate options
  11:../../libDaisy//src/per/sai.h ****  * Allows for master or slave, as well as freedom of selecting direction, 
  12:../../libDaisy//src/per/sai.h ****  * and other behavior for each peripheral, and block.
  13:../../libDaisy//src/per/sai.h ****  * 
  14:../../libDaisy//src/per/sai.h ****  * DMA Transfer commands must use buffers located within non-cached memory or use cache maintenance
  15:../../libDaisy//src/per/sai.h ****  * To declare an unitialized global element in the DMA memory section:
  16:../../libDaisy//src/per/sai.h ****  *    int32_t DSY_DMA_BUFFER_SECTOR my_buffer[96];
  17:../../libDaisy//src/per/sai.h ****  *
  18:../../libDaisy//src/per/sai.h ****  * Callback functions will be called once per half of the buffer. In the above example, 
  19:../../libDaisy//src/per/sai.h ****  * the callback function would be called once for every 48 samples.
  20:../../libDaisy//src/per/sai.h ****  * 
  21:../../libDaisy//src/per/sai.h ****  * Use SAI Handle like this:
  22:../../libDaisy//src/per/sai.h ****  * 
  23:../../libDaisy//src/per/sai.h ****  *  SaiHandle::Config sai_config;
  24:../../libDaisy//src/per/sai.h ****  *  sai_config.periph          = SaiHandle::Config::Peripheral::SAI_1;
  25:../../libDaisy//src/per/sai.h ****  *  sai_config.sr              = SaiHandle::Config::SampleRate::SAI_48KHZ;
  26:../../libDaisy//src/per/sai.h ****  *  sai_config.bit_depth       = SaiHandle::Config::BitDepth::SAI_24BIT;
  27:../../libDaisy//src/per/sai.h ****  *  sai_config.a_sync          = SaiHandle::Config::Sync::MASTER;
  28:../../libDaisy//src/per/sai.h ****  *  sai_config.b_sync          = SaiHandle::Config::Sync::SLAVE;
  29:../../libDaisy//src/per/sai.h ****  *  sai_config.a_dir           = SaiHandle::Config::Direction::RECEIVE;
  30:../../libDaisy//src/per/sai.h ****  *  sai_config.b_dir           = SaiHandle::Config::Direction::TRANSMIT;
  31:../../libDaisy//src/per/sai.h ****  *  sai_config.pin_config.fs   = {DSY_GPIOE, 4};
  32:../../libDaisy//src/per/sai.h ****  *  sai_config.pin_config.mclk = {DSY_GPIOE, 2};
  33:../../libDaisy//src/per/sai.h ****  *  sai_config.pin_config.sck  = {DSY_GPIOE, 5};
  34:../../libDaisy//src/per/sai.h ****  *  sai_config.pin_config.sa   = {DSY_GPIOE, 6};
  35:../../libDaisy//src/per/sai.h ****  *  sai_config.pin_config.sb   = {DSY_GPIOE, 3};
  36:../../libDaisy//src/per/sai.h ****  *  // Then Initialize
  37:../../libDaisy//src/per/sai.h ****  *  SaiHandle sai;
  38:../../libDaisy//src/per/sai.h ****  *  sai.Init(sai_config);
  39:../../libDaisy//src/per/sai.h ****  *  // Now you can use it:
  40:../../libDaisy//src/per/sai.h ****  *  sai.StartDma(. . .);
  41:../../libDaisy//src/per/sai.h ****  */
  42:../../libDaisy//src/per/sai.h **** class SaiHandle
  43:../../libDaisy//src/per/sai.h **** {
  44:../../libDaisy//src/per/sai.h ****   public:
  45:../../libDaisy//src/per/sai.h ****     /** Contains settings for initialising an SAI Interface */
  46:../../libDaisy//src/per/sai.h ****     struct Config
  47:../../libDaisy//src/per/sai.h ****     {
  48:../../libDaisy//src/per/sai.h ****         /** Specifies the internal peripheral to use (mapped to different hardware pins) */
ARM GAS  C:\Users\ryota\AppData\Local\Temp\ccqb3BvA.s 			page 38


  49:../../libDaisy//src/per/sai.h ****         enum class Peripheral
  50:../../libDaisy//src/per/sai.h ****         {
  51:../../libDaisy//src/per/sai.h ****             SAI_1,
  52:../../libDaisy//src/per/sai.h ****             SAI_2,
  53:../../libDaisy//src/per/sai.h ****         };
  54:../../libDaisy//src/per/sai.h **** 
  55:../../libDaisy//src/per/sai.h ****         /** Rate at which samples will be streaming to/from the device. */
  56:../../libDaisy//src/per/sai.h ****         enum class SampleRate
  57:../../libDaisy//src/per/sai.h ****         {
  58:../../libDaisy//src/per/sai.h ****             SAI_8KHZ,
  59:../../libDaisy//src/per/sai.h ****             SAI_16KHZ,
  60:../../libDaisy//src/per/sai.h ****             SAI_32KHZ,
  61:../../libDaisy//src/per/sai.h ****             SAI_48KHZ,
  62:../../libDaisy//src/per/sai.h ****             SAI_96KHZ,
  63:../../libDaisy//src/per/sai.h ****         };
  64:../../libDaisy//src/per/sai.h **** 
  65:../../libDaisy//src/per/sai.h ****         /** Bit Depth that the hardware expects to be transferred to/from the device. */
  66:../../libDaisy//src/per/sai.h ****         enum class BitDepth
  67:../../libDaisy//src/per/sai.h ****         {
  68:../../libDaisy//src/per/sai.h ****             SAI_16BIT,
  69:../../libDaisy//src/per/sai.h ****             SAI_24BIT,
  70:../../libDaisy//src/per/sai.h ****             SAI_32BIT,
  71:../../libDaisy//src/per/sai.h ****         };
  72:../../libDaisy//src/per/sai.h **** 
  73:../../libDaisy//src/per/sai.h ****         /** Specifies whether a particular block is the master or the slave 
  74:../../libDaisy//src/per/sai.h ****          ** If both are set to slave, no MCLK signal will be used, and it is
  75:../../libDaisy//src/per/sai.h ****          ** expected that the codec will have its own xtal.
  76:../../libDaisy//src/per/sai.h ****          */
  77:../../libDaisy//src/per/sai.h ****         enum class Sync
  78:../../libDaisy//src/per/sai.h ****         {
  79:../../libDaisy//src/per/sai.h ****             MASTER,
  80:../../libDaisy//src/per/sai.h ****             SLAVE,
  81:../../libDaisy//src/per/sai.h ****         };
  82:../../libDaisy//src/per/sai.h **** 
  83:../../libDaisy//src/per/sai.h ****         /** Specifies the direction for each peripheral block. */
  84:../../libDaisy//src/per/sai.h ****         enum class Direction
  85:../../libDaisy//src/per/sai.h ****         {
  86:../../libDaisy//src/per/sai.h ****             TRANSMIT,
  87:../../libDaisy//src/per/sai.h ****             RECEIVE,
  88:../../libDaisy//src/per/sai.h ****         };
  89:../../libDaisy//src/per/sai.h **** 
  90:../../libDaisy//src/per/sai.h ****         Peripheral periph;
  91:../../libDaisy//src/per/sai.h ****         struct
  92:../../libDaisy//src/per/sai.h ****         {
  93:../../libDaisy//src/per/sai.h ****             dsy_gpio_pin mclk, fs, sck, sa, sb;
  94:../../libDaisy//src/per/sai.h ****         } pin_config;
  95:../../libDaisy//src/per/sai.h ****         SampleRate sr;
  96:../../libDaisy//src/per/sai.h ****         BitDepth   bit_depth;
  97:../../libDaisy//src/per/sai.h ****         Sync       a_sync, b_sync;
  98:../../libDaisy//src/per/sai.h ****         Direction  a_dir, b_dir;
  99:../../libDaisy//src/per/sai.h ****     };
 100:../../libDaisy//src/per/sai.h **** 
 101:../../libDaisy//src/per/sai.h ****     /** Return values for SAI functions */
 102:../../libDaisy//src/per/sai.h ****     enum class Result
 103:../../libDaisy//src/per/sai.h ****     {
 104:../../libDaisy//src/per/sai.h ****         OK,
 105:../../libDaisy//src/per/sai.h ****         ERR,
ARM GAS  C:\Users\ryota\AppData\Local\Temp\ccqb3BvA.s 			page 39


 106:../../libDaisy//src/per/sai.h ****     };
 107:../../libDaisy//src/per/sai.h **** 
 108:../../libDaisy//src/per/sai.h ****     SaiHandle() : pimpl_(nullptr) {}
 925              		.loc 10 108 5 is_stmt 1 view .LVU250
 926              	.LBB195:
 927              	.LBB196:
 928              		.loc 10 108 33 is_stmt 0 view .LVU251
 929 000e C363     		str	r3, [r0, #60]
 930              	.LVL43:
 931              		.loc 10 108 33 view .LVU252
 932              	.LBE196:
 933              	.LBE195:
 934              	.LBE194:
 935              	.LBE198:
 936              	.LBE200:
  53:master_level.cpp **** DaisySeed hw;
 937              		.loc 6 53 11 view .LVU253
 938 0010 0649     		ldr	r1, .L65+8
 939 0012 FFF7FEFF 		bl	__aeabi_atexit
 940              	.LVL44:
  56:master_level.cpp **** FFTLibrary fftLibrary(96000.f);
 941              		.loc 6 56 30 view .LVU254
 942 0016 9FED060A 		vldr.32	s0, .L65+12
 943 001a 0648     		ldr	r0, .L65+16
 944              	.LBE201:
 945              	.LBE203:
 946              		.loc 6 204 1 view .LVU255
 947 001c BDE80840 		pop	{r3, lr}
 948              		.cfi_restore 14
 949              		.cfi_restore 3
 950              		.cfi_def_cfa_offset 0
 951              	.LBB204:
 952              	.LBB202:
  56:master_level.cpp **** FFTLibrary fftLibrary(96000.f);
 953              		.loc 6 56 30 view .LVU256
 954 0020 FFF7FEBF 		b	_ZN10FFTLibraryC1Ef
 955              	.LVL45:
 956              	.L66:
 957              		.align	2
 958              	.L65:
 959 0024 00000000 		.word	.LANCHOR5
 960 0028 00000000 		.word	__dso_handle
 961 002c 00000000 		.word	_ZN5daisy9DaisySeedD1Ev
 962 0030 0080BB47 		.word	1203470336
 963 0034 00000000 		.word	.LANCHOR6
 964              	.LBE202:
 965              	.LBE204:
 966              		.cfi_endproc
 967              	.LFE6038:
 969              		.section	.init_array,"aw",%init_array
 970              		.align	2
 971 0000 00000000 		.word	_GLOBAL__sub_I_hw(target1)
 972              		.global	normalizedDetectedFrequencyLevel_3
 973              		.global	normalizedDetectedFrequencyLevel_2
 974              		.global	normalizedDetectedFrequencyLevel_1
 975              		.global	normalizedDetectedFrequencyLevel_0
 976              		.global	lastPrintTime
ARM GAS  C:\Users\ryota\AppData\Local\Temp\ccqb3BvA.s 			page 40


 977              		.global	detectedFrequencyLevel_1
 978              		.global	detectedFrequencyLevel_0
 979              		.global	fftLibrary
 980              		.global	hw
 981              		.section	.bss._ZL18buffer_write_pos_0,"aw",%nobits
 982              		.align	2
 983              		.set	.LANCHOR1,. + 0
 986              	_ZL18buffer_write_pos_0:
 987 0000 00000000 		.space	4
 988              		.section	.bss._ZL18buffer_write_pos_1,"aw",%nobits
 989              		.align	2
 990              		.set	.LANCHOR3,. + 0
 993              	_ZL18buffer_write_pos_1:
 994 0000 00000000 		.space	4
 995              		.section	.bss._ZL26fft_ready_for_processing_0,"aw",%nobits
 996              		.set	.LANCHOR0,. + 0
 999              	_ZL26fft_ready_for_processing_0:
 1000 0000 00       		.space	1
 1001              		.section	.bss._ZL26fft_ready_for_processing_1,"aw",%nobits
 1002              		.set	.LANCHOR2,. + 0
 1005              	_ZL26fft_ready_for_processing_1:
 1006 0000 00       		.space	1
 1007              		.section	.bss.detectedFrequencyLevel_0,"aw",%nobits
 1008              		.align	2
 1009              		.set	.LANCHOR8,. + 0
 1012              	detectedFrequencyLevel_0:
 1013 0000 00000000 		.space	4
 1014              		.section	.bss.detectedFrequencyLevel_1,"aw",%nobits
 1015              		.align	2
 1016              		.set	.LANCHOR9,. + 0
 1019              	detectedFrequencyLevel_1:
 1020 0000 00000000 		.space	4
 1021              		.section	.bss.fftLibrary,"aw",%nobits
 1022              		.align	2
 1023              		.set	.LANCHOR6,. + 0
 1026              	fftLibrary:
 1027 0000 00000000 		.space	4
 1028              		.section	.bss.hw,"aw",%nobits
 1029              		.align	2
 1030              		.set	.LANCHOR5,. + 0
 1033              	hw:
 1034 0000 00000000 		.space	64
 1034      00000000 
 1034      00000000 
 1034      00000000 
 1034      00000000 
 1035              		.section	.bss.lastPrintTime,"aw",%nobits
 1036              		.align	2
 1037              		.set	.LANCHOR7,. + 0
 1040              	lastPrintTime:
 1041 0000 00000000 		.space	4
 1042              		.section	.bss.normalizedDetectedFrequencyLevel_0,"aw",%nobits
 1043              		.align	2
 1044              		.set	.LANCHOR10,. + 0
 1047              	normalizedDetectedFrequencyLevel_0:
 1048 0000 00000000 		.space	4
 1049              		.section	.bss.normalizedDetectedFrequencyLevel_1,"aw",%nobits
ARM GAS  C:\Users\ryota\AppData\Local\Temp\ccqb3BvA.s 			page 41


 1050              		.align	2
 1051              		.set	.LANCHOR11,. + 0
 1054              	normalizedDetectedFrequencyLevel_1:
 1055 0000 00000000 		.space	4
 1056              		.section	.bss.normalizedDetectedFrequencyLevel_2,"aw",%nobits
 1057              		.align	2
 1058              		.set	.LANCHOR12,. + 0
 1061              	normalizedDetectedFrequencyLevel_2:
 1062 0000 00000000 		.space	4
 1063              		.section	.bss.normalizedDetectedFrequencyLevel_3,"aw",%nobits
 1064              		.align	2
 1065              		.set	.LANCHOR13,. + 0
 1068              	normalizedDetectedFrequencyLevel_3:
 1069 0000 00000000 		.space	4
 1070              		.section	.sdram_bss,"aw"
 1071              		.align	2
 1072              		.set	.LANCHOR4,. + 0
 1075              	_ZL18fft_input_buffer_0:
 1076 0000 00000000 		.space	256
 1076      00000000 
 1076      00000000 
 1076      00000000 
 1076      00000000 
 1079              	_ZL18fft_input_buffer_1:
 1080 0100 00000000 		.space	256
 1080      00000000 
 1080      00000000 
 1080      00000000 
 1080      00000000 
 1081              		.text
 1082              	.Letext0:
 1083              		.file 11 "c:\\program files\\daisytoolchain\\arm-none-eabi\\include\\machine\\_default_types.h"
 1084              		.file 12 "c:\\program files\\daisytoolchain\\arm-none-eabi\\include\\sys\\_stdint.h"
 1085              		.file 13 "c:\\program files\\daisytoolchain\\arm-none-eabi\\include\\stdint.h"
 1086              		.file 14 "c:\\program files\\daisytoolchain\\lib\\gcc\\arm-none-eabi\\10.2.1\\include\\stddef.h"
 1087              		.file 15 "c:\\program files\\daisytoolchain\\arm-none-eabi\\include\\c++\\10.2.1\\bits\\basic_stri
 1088              		.file 16 "c:\\program files\\daisytoolchain\\arm-none-eabi\\include\\c++\\10.2.1\\cmath"
 1089              		.file 17 "c:\\program files\\daisytoolchain\\arm-none-eabi\\include\\c++\\10.2.1\\cstdlib"
 1090              		.file 18 "c:\\program files\\daisytoolchain\\arm-none-eabi\\include\\c++\\10.2.1\\cstdint"
 1091              		.file 19 "c:\\program files\\daisytoolchain\\arm-none-eabi\\include\\c++\\10.2.1\\arm-none-eabi\\t
 1092              		.file 20 "c:\\program files\\daisytoolchain\\arm-none-eabi\\include\\c++\\10.2.1\\type_traits"
 1093              		.file 21 "c:\\program files\\daisytoolchain\\arm-none-eabi\\include\\c++\\10.2.1\\bits\\stl_pair.h
 1094              		.file 22 "c:\\program files\\daisytoolchain\\arm-none-eabi\\include\\c++\\10.2.1\\debug\\debug.h"
 1095              		.file 23 "c:\\program files\\daisytoolchain\\arm-none-eabi\\include\\c++\\10.2.1\\bits\\algorithmf
 1096              		.file 24 "c:\\program files\\daisytoolchain\\arm-none-eabi\\include\\c++\\10.2.1\\bits\\exception_
 1097              		.file 25 "c:\\program files\\daisytoolchain\\arm-none-eabi\\include\\c++\\10.2.1\\cstdarg"
 1098              		.file 26 "c:\\program files\\daisytoolchain\\arm-none-eabi\\include\\c++\\10.2.1\\cstdio"
 1099              		.file 27 "c:\\program files\\daisytoolchain\\arm-none-eabi\\include\\c++\\10.2.1\\cstring"
 1100              		.file 28 "c:\\program files\\daisytoolchain\\arm-none-eabi\\include\\c++\\10.2.1\\cwchar"
 1101              		.file 29 "c:\\program files\\daisytoolchain\\arm-none-eabi\\include\\c++\\10.2.1\\bits\\char_trait
 1102              		.file 30 "c:\\program files\\daisytoolchain\\arm-none-eabi\\include\\c++\\10.2.1\\bits\\allocator.
 1103              		.file 31 "c:\\program files\\daisytoolchain\\arm-none-eabi\\include\\c++\\10.2.1\\clocale"
 1104              		.file 32 "c:\\program files\\daisytoolchain\\arm-none-eabi\\include\\c++\\10.2.1\\bits\\alloc_trai
 1105              		.file 33 "c:\\program files\\daisytoolchain\\arm-none-eabi\\include\\c++\\10.2.1\\initializer_list
 1106              		.file 34 "c:\\program files\\daisytoolchain\\arm-none-eabi\\include\\c++\\10.2.1\\bits\\stringfwd.
 1107              		.file 35 "c:\\program files\\daisytoolchain\\arm-none-eabi\\include\\c++\\10.2.1\\complex"
 1108              		.file 36 "c:\\program files\\daisytoolchain\\arm-none-eabi\\include\\c++\\10.2.1\\bits\\stl_tempbu
ARM GAS  C:\Users\ryota\AppData\Local\Temp\ccqb3BvA.s 			page 42


 1109              		.file 37 "c:\\program files\\daisytoolchain\\arm-none-eabi\\include\\c++\\10.2.1\\cwctype"
 1110              		.file 38 "c:\\program files\\daisytoolchain\\arm-none-eabi\\include\\c++\\10.2.1\\bits\\stl_iterat
 1111              		.file 39 "c:\\program files\\daisytoolchain\\arm-none-eabi\\include\\c++\\10.2.1\\bits\\predefined
 1112              		.file 40 "c:\\program files\\daisytoolchain\\arm-none-eabi\\include\\c++\\10.2.1\\ext\\new_allocat
 1113              		.file 41 "c:\\program files\\daisytoolchain\\arm-none-eabi\\include\\c++\\10.2.1\\ext\\alloc_trait
 1114              		.file 42 "c:\\program files\\daisytoolchain\\arm-none-eabi\\include\\c++\\10.2.1\\bits\\stl_iterat
 1115              		.file 43 "c:\\program files\\daisytoolchain\\arm-none-eabi\\include\\sys\\_types.h"
 1116              		.file 44 "<built-in>"
 1117              		.file 45 "c:\\program files\\daisytoolchain\\arm-none-eabi\\include\\sys\\reent.h"
 1118              		.file 46 "c:\\program files\\daisytoolchain\\arm-none-eabi\\include\\sys\\lock.h"
 1119              		.file 47 "c:\\program files\\daisytoolchain\\arm-none-eabi\\include\\math.h"
 1120              		.file 48 "c:\\program files\\daisytoolchain\\arm-none-eabi\\include\\stdlib.h"
 1121              		.file 49 "c:\\program files\\daisytoolchain\\arm-none-eabi\\include\\c++\\10.2.1\\math.h"
 1122              		.file 50 "c:\\program files\\daisytoolchain\\arm-none-eabi\\include\\c++\\10.2.1\\stdlib.h"
 1123              		.file 51 "../../libDaisy//src/daisy_core.h"
 1124              		.file 52 "../../libDaisy//src/per/tim.h"
 1125              		.file 53 "../../libDaisy//src/hid/logger_impl.h"
 1126              		.file 54 "../../libDaisy//src/util/wav_format.h"
 1127              		.file 55 "../../libDaisy//src/dev/max11300.h"
 1128              		.file 56 "../../libDaisy//src/hid/logger.h"
 1129              		.file 57 "../../libDaisy//src/util/FIFO.h"
 1130              		.file 58 "../../libDaisy//src/per/gpio.h"
 1131              		.file 59 "../../libDaisy//src/dev/sdram.h"
 1132              		.file 60 "c:\\program files\\daisytoolchain\\lib\\gcc\\arm-none-eabi\\10.2.1\\include\\stdarg.h"
 1133              		.file 61 "c:\\program files\\daisytoolchain\\arm-none-eabi\\include\\stdio.h"
 1134              		.file 62 "c:\\program files\\daisytoolchain\\arm-none-eabi\\include\\string.h"
 1135              		.file 63 "../../DaisySP//Source/Control/adenv.h"
 1136              		.file 64 "../../DaisySP//Source/Utility/dsp.h"
 1137              		.file 65 "c:\\program files\\daisytoolchain\\arm-none-eabi\\include\\wchar.h"
 1138              		.file 66 "c:\\program files\\daisytoolchain\\arm-none-eabi\\include\\locale.h"
 1139              		.file 67 "c:\\program files\\daisytoolchain\\arm-none-eabi\\include\\wctype.h"
 1140              		.file 68 "library/fft_library.h"
 1141              		.file 69 "library/serial_library.h"
 1142              		.file 70 "../../libDaisy//src/dev/sr_595.h"
ARM GAS  C:\Users\ryota\AppData\Local\Temp\ccqb3BvA.s 			page 43

