ARM GAS  C:\Users\ryota\AppData\Local\Temp\ccNuOPtY.s 			page 1


   1              		.cpu cortex-m7
   2              		.eabi_attribute 28, 1
   3              		.eabi_attribute 20, 1
   4              		.eabi_attribute 21, 1
   5              		.eabi_attribute 23, 3
   6              		.eabi_attribute 24, 1
   7              		.eabi_attribute 25, 1
   8              		.eabi_attribute 26, 1
   9              		.eabi_attribute 30, 2
  10              		.eabi_attribute 34, 1
  11              		.eabi_attribute 18, 4
  12              		.file	"serial_library.cpp"
  13              		.text
  14              	.Ltext0:
  15              		.cfi_sections	.debug_frame
  16              		.section	.text._ZN13SerialLibrary11UsbCallbackEPhPm,"ax",%progbits
  17              		.align	1
  18              		.p2align 2,,3
  19              		.global	_ZN13SerialLibrary11UsbCallbackEPhPm
  20              		.arch armv7e-m
  21              		.syntax unified
  22              		.thumb
  23              		.thumb_func
  24              		.fpu fpv5-d16
  26              	_ZN13SerialLibrary11UsbCallbackEPhPm:
  27              	.LVL0:
  28              	.LFB3181:
  29              		.file 1 "library/serial_library.cpp"
   1:library/serial_library.cpp **** #include "serial_library.h"
   2:library/serial_library.cpp **** 
   3:library/serial_library.cpp **** // Static instance pointer for callback
   4:library/serial_library.cpp **** SerialLibrary* SerialLibrary::instance_ = nullptr;
   5:library/serial_library.cpp **** 
   6:library/serial_library.cpp **** SerialLibrary::SerialLibrary(DaisySeed& hw) : hw_(hw), command_buffer_("") {
   7:library/serial_library.cpp ****     instance_ = this;
   8:library/serial_library.cpp **** }
   9:library/serial_library.cpp **** 
  10:library/serial_library.cpp **** SerialLibrary::~SerialLibrary() {
  11:library/serial_library.cpp ****     if (instance_ == this) {
  12:library/serial_library.cpp ****         instance_ = nullptr;
  13:library/serial_library.cpp ****     }
  14:library/serial_library.cpp **** }
  15:library/serial_library.cpp **** 
  16:library/serial_library.cpp **** void SerialLibrary::Init() {
  17:library/serial_library.cpp ****     // Start the log and wait for connection
  18:library/serial_library.cpp ****     hw_.StartLog(true);
  19:library/serial_library.cpp ****     
  20:library/serial_library.cpp ****     // Set USB callback
  21:library/serial_library.cpp ****     hw_.usb_handle.SetReceiveCallback(UsbCallback, UsbHandle::UsbPeriph::FS_INTERNAL);
  22:library/serial_library.cpp **** }
  23:library/serial_library.cpp **** 
  24:library/serial_library.cpp **** bool SerialLibrary::HasData() {
  25:library/serial_library.cpp ****     return !msg_fifo_.IsEmpty();
  26:library/serial_library.cpp **** }
  27:library/serial_library.cpp **** 
  28:library/serial_library.cpp **** int SerialLibrary::GetChar() {
  29:library/serial_library.cpp ****     if (msg_fifo_.IsEmpty()) {
ARM GAS  C:\Users\ryota\AppData\Local\Temp\ccNuOPtY.s 			page 2


  30:library/serial_library.cpp ****         return 0;
  31:library/serial_library.cpp ****     }
  32:library/serial_library.cpp ****     return msg_fifo_.PopFront();
  33:library/serial_library.cpp **** }
  34:library/serial_library.cpp **** 
  35:library/serial_library.cpp **** bool SerialLibrary::CheckCommand(const char* command) {
  36:library/serial_library.cpp ****     // Process any new data and add to command buffer
  37:library/serial_library.cpp ****     while (HasData()) {
  38:library/serial_library.cpp ****         int ch = GetChar();
  39:library/serial_library.cpp ****         if (ch >= 32 && ch <= 126) { // Printable ASCII characters
  40:library/serial_library.cpp ****             command_buffer_ += static_cast<char>(ch);
  41:library/serial_library.cpp ****         } else if (ch == '\n' || ch == '\r') {
  42:library/serial_library.cpp ****             // End of line found, check if command matches
  43:library/serial_library.cpp ****             std::string cmd = command_buffer_;
  44:library/serial_library.cpp ****             command_buffer_.clear();
  45:library/serial_library.cpp ****             
  46:library/serial_library.cpp ****             // Remove any trailing whitespace
  47:library/serial_library.cpp ****             while (!cmd.empty() && (cmd.back() == ' ' || cmd.back() == '\t')) {
  48:library/serial_library.cpp ****                 cmd.pop_back();
  49:library/serial_library.cpp ****             }
  50:library/serial_library.cpp ****             
  51:library/serial_library.cpp ****             return (cmd == command);
  52:library/serial_library.cpp ****         }
  53:library/serial_library.cpp ****     }
  54:library/serial_library.cpp ****     
  55:library/serial_library.cpp ****     // Also check if the current buffer matches the command (without newline)
  56:library/serial_library.cpp ****     if (!command_buffer_.empty()) {
  57:library/serial_library.cpp ****         std::string cmd = command_buffer_;
  58:library/serial_library.cpp ****         
  59:library/serial_library.cpp ****         // Remove any trailing whitespace
  60:library/serial_library.cpp ****         while (!cmd.empty() && (cmd.back() == ' ' || cmd.back() == '\t')) {
  61:library/serial_library.cpp ****             cmd.pop_back();
  62:library/serial_library.cpp ****         }
  63:library/serial_library.cpp ****         
  64:library/serial_library.cpp ****         if (cmd == command) {
  65:library/serial_library.cpp ****             command_buffer_.clear(); // Clear for next command
  66:library/serial_library.cpp ****             return true;
  67:library/serial_library.cpp ****         } else if (cmd.length() >= strlen(command)) {
  68:library/serial_library.cpp ****             // If buffer is longer than expected command, clear it
  69:library/serial_library.cpp ****             command_buffer_.clear();
  70:library/serial_library.cpp ****         }
  71:library/serial_library.cpp ****     }
  72:library/serial_library.cpp ****     
  73:library/serial_library.cpp ****     return false;
  74:library/serial_library.cpp **** }
  75:library/serial_library.cpp **** 
  76:library/serial_library.cpp **** // Static callback function
  77:library/serial_library.cpp **** void SerialLibrary::UsbCallback(uint8_t* buff, uint32_t* length) {
  30              		.loc 1 77 66 view -0
  31              		.cfi_startproc
  32              		@ args = 0, pretend = 0, frame = 0
  33              		@ frame_needed = 0, uses_anonymous_args = 0
  78:library/serial_library.cpp ****     if (instance_ && buff && length) {
  34              		.loc 1 78 5 view .LVU1
  77:library/serial_library.cpp ****     if (instance_ && buff && length) {
  35              		.loc 1 77 66 is_stmt 0 view .LVU2
  36 0000 F0B5     		push	{r4, r5, r6, r7, lr}
ARM GAS  C:\Users\ryota\AppData\Local\Temp\ccNuOPtY.s 			page 3


  37              		.cfi_def_cfa_offset 20
  38              		.cfi_offset 4, -20
  39              		.cfi_offset 5, -16
  40              		.cfi_offset 6, -12
  41              		.cfi_offset 7, -8
  42              		.cfi_offset 14, -4
  43              	.LBB487:
  44              		.loc 1 78 9 view .LVU3
  45 0002 144E     		ldr	r6, .L27
  46 0004 3368     		ldr	r3, [r6]
  47              		.loc 1 78 5 view .LVU4
  48 0006 23B3     		cbz	r3, .L1
  49              		.loc 1 78 27 discriminator 1 view .LVU5
  50 0008 18B3     		cbz	r0, .L1
  51 000a 11B3     		cbz	r1, .L1
  52              	.LVL1:
  53              		.loc 1 78 27 discriminator 1 view .LVU6
  54              	.LBE487:
  55              	.LBB488:
  56              	.LBB489:
  79:library/serial_library.cpp ****         // Push all received bytes to the FIFO
  80:library/serial_library.cpp ****         for (uint32_t i = 0; i < *length; i++) {
  57              		.loc 1 80 32 is_stmt 1 view .LVU7
  58 000c 0F68     		ldr	r7, [r1]
  59 000e 07B3     		cbz	r7, .L1
  60              		.loc 1 80 23 is_stmt 0 view .LVU8
  61 0010 4FF0000C 		mov	ip, #0
  62 0014 00E0     		b	.L8
  63              	.LVL2:
  64              	.L26:
  81:library/serial_library.cpp ****             instance_->msg_fifo_.PushBack(buff[i]);
  65              		.loc 1 81 42 view .LVU9
  66 0016 3368     		ldr	r3, [r6]
  67              	.LVL3:
  68              	.L8:
  69              		.loc 1 81 13 is_stmt 1 view .LVU10
  70              	.LBB490:
  71              	.LBI490:
  72              		.file 2 "../../libDaisy//src/util/FIFO.h"
   1:../../libDaisy//src/util/FIFO.h **** #pragma once
   2:../../libDaisy//src/util/FIFO.h **** 
   3:../../libDaisy//src/util/FIFO.h **** #include <stdint.h>
   4:../../libDaisy//src/util/FIFO.h **** #include <stddef.h>
   5:../../libDaisy//src/util/FIFO.h **** #include <initializer_list>
   6:../../libDaisy//src/util/FIFO.h **** 
   7:../../libDaisy//src/util/FIFO.h **** namespace daisy
   8:../../libDaisy//src/util/FIFO.h **** {
   9:../../libDaisy//src/util/FIFO.h **** /** Capacity-independent base class for FIFO. Use FIFO instead. */
  10:../../libDaisy//src/util/FIFO.h **** template <typename T>
  11:../../libDaisy//src/util/FIFO.h **** class FIFOBase
  12:../../libDaisy//src/util/FIFO.h **** {
  13:../../libDaisy//src/util/FIFO.h ****   protected:
  14:../../libDaisy//src/util/FIFO.h ****     FIFOBase(T* buffer, size_t bufferSize)
  15:../../libDaisy//src/util/FIFO.h ****     : buffer_(buffer), bufferSize_(bufferSize), bufferIn_(0), bufferOut_(0)
  16:../../libDaisy//src/util/FIFO.h ****     {
  17:../../libDaisy//src/util/FIFO.h ****     }
  18:../../libDaisy//src/util/FIFO.h **** 
ARM GAS  C:\Users\ryota\AppData\Local\Temp\ccNuOPtY.s 			page 4


  19:../../libDaisy//src/util/FIFO.h ****     FIFOBase(T* buffer, size_t bufferSize, std::initializer_list<T> valuesToAdd)
  20:../../libDaisy//src/util/FIFO.h ****     : buffer_(buffer), bufferSize_(bufferSize), bufferIn_(0), bufferOut_(0)
  21:../../libDaisy//src/util/FIFO.h ****     {
  22:../../libDaisy//src/util/FIFO.h ****         PushBack(valuesToAdd);
  23:../../libDaisy//src/util/FIFO.h ****     }
  24:../../libDaisy//src/util/FIFO.h **** 
  25:../../libDaisy//src/util/FIFO.h ****   public:
  26:../../libDaisy//src/util/FIFO.h ****     /** Copies all elements from another FIFO */
  27:../../libDaisy//src/util/FIFO.h ****     FIFOBase<T>& operator=(const FIFOBase<T>& other)
  28:../../libDaisy//src/util/FIFO.h ****     {
  29:../../libDaisy//src/util/FIFO.h ****         bufferIn_ = bufferOut_ = 0;
  30:../../libDaisy//src/util/FIFO.h ****         if(!other.IsEmpty())
  31:../../libDaisy//src/util/FIFO.h ****         {
  32:../../libDaisy//src/util/FIFO.h ****             int readPtr = other.bufferOut_;
  33:../../libDaisy//src/util/FIFO.h ****             while((readPtr != other.bufferIn_) && (bufferIn_ < bufferSize_))
  34:../../libDaisy//src/util/FIFO.h ****             {
  35:../../libDaisy//src/util/FIFO.h ****                 buffer_[bufferIn_++] = other.buffer_[readPtr++];
  36:../../libDaisy//src/util/FIFO.h ****                 if(readPtr >= other.bufferSize_)
  37:../../libDaisy//src/util/FIFO.h ****                     readPtr -= other.bufferSize_;
  38:../../libDaisy//src/util/FIFO.h ****             }
  39:../../libDaisy//src/util/FIFO.h ****         }
  40:../../libDaisy//src/util/FIFO.h ****         return *this;
  41:../../libDaisy//src/util/FIFO.h ****     }
  42:../../libDaisy//src/util/FIFO.h ****     ~FIFOBase() {}
  43:../../libDaisy//src/util/FIFO.h **** 
  44:../../libDaisy//src/util/FIFO.h ****     /** Removes all elements from the FIFO */
  45:../../libDaisy//src/util/FIFO.h ****     void Clear() { bufferIn_ = bufferOut_ = 0; }
  46:../../libDaisy//src/util/FIFO.h **** 
  47:../../libDaisy//src/util/FIFO.h ****     /** Adds an element to the back of the buffer, returning true on
  48:../../libDaisy//src/util/FIFO.h ****         success */
  49:../../libDaisy//src/util/FIFO.h ****     bool PushBack(const T& elementToAdd)
  73              		.loc 2 49 10 view .LVU11
  74              	.LBB491:
  75              	.LBB492:
  76              	.LBI492:
  50:../../libDaisy//src/util/FIFO.h ****     {
  51:../../libDaisy//src/util/FIFO.h ****         if(!IsFull())
  52:../../libDaisy//src/util/FIFO.h ****         {
  53:../../libDaisy//src/util/FIFO.h ****             buffer_[bufferIn_++] = elementToAdd;
  54:../../libDaisy//src/util/FIFO.h ****             if(bufferIn_ >= bufferSize_)
  55:../../libDaisy//src/util/FIFO.h ****                 bufferIn_ -= bufferSize_;
  56:../../libDaisy//src/util/FIFO.h ****             return true;
  57:../../libDaisy//src/util/FIFO.h ****         }
  58:../../libDaisy//src/util/FIFO.h ****         return false;
  59:../../libDaisy//src/util/FIFO.h ****     }
  60:../../libDaisy//src/util/FIFO.h **** 
  61:../../libDaisy//src/util/FIFO.h ****     /** Adds multiple elements and returns the number of elements that were added */
  62:../../libDaisy//src/util/FIFO.h ****     int PushBack(std::initializer_list<T> valuesToAdd)
  63:../../libDaisy//src/util/FIFO.h ****     {
  64:../../libDaisy//src/util/FIFO.h ****         int numAdded = 0;
  65:../../libDaisy//src/util/FIFO.h ****         for(const auto& v : valuesToAdd)
  66:../../libDaisy//src/util/FIFO.h ****         {
  67:../../libDaisy//src/util/FIFO.h ****             if(IsFull())
  68:../../libDaisy//src/util/FIFO.h ****                 return numAdded;
  69:../../libDaisy//src/util/FIFO.h **** 
  70:../../libDaisy//src/util/FIFO.h ****             PushBack(v);
  71:../../libDaisy//src/util/FIFO.h ****             numAdded++;
ARM GAS  C:\Users\ryota\AppData\Local\Temp\ccNuOPtY.s 			page 5


  72:../../libDaisy//src/util/FIFO.h ****         }
  73:../../libDaisy//src/util/FIFO.h ****         return numAdded;
  74:../../libDaisy//src/util/FIFO.h ****     }
  75:../../libDaisy//src/util/FIFO.h **** 
  76:../../libDaisy//src/util/FIFO.h ****     /** returns a reference to the last element */
  77:../../libDaisy//src/util/FIFO.h ****     T& Back()
  78:../../libDaisy//src/util/FIFO.h ****     {
  79:../../libDaisy//src/util/FIFO.h ****         if(IsEmpty())
  80:../../libDaisy//src/util/FIFO.h ****             // invalid, but better not pass a temporary T() object as a reference...
  81:../../libDaisy//src/util/FIFO.h ****             return buffer_[0];
  82:../../libDaisy//src/util/FIFO.h ****         int idx = bufferIn_ - 1;
  83:../../libDaisy//src/util/FIFO.h ****         if(idx < 0)
  84:../../libDaisy//src/util/FIFO.h ****             idx += bufferSize_;
  85:../../libDaisy//src/util/FIFO.h ****         return buffer_[idx];
  86:../../libDaisy//src/util/FIFO.h ****     }
  87:../../libDaisy//src/util/FIFO.h **** 
  88:../../libDaisy//src/util/FIFO.h ****     /** returns a reference to the last element */
  89:../../libDaisy//src/util/FIFO.h ****     const T& Back() const
  90:../../libDaisy//src/util/FIFO.h ****     {
  91:../../libDaisy//src/util/FIFO.h ****         if(IsEmpty())
  92:../../libDaisy//src/util/FIFO.h ****             // invalid, but better not pass a temporary T() object as a reference...
  93:../../libDaisy//src/util/FIFO.h ****             return buffer_[0];
  94:../../libDaisy//src/util/FIFO.h ****         int idx = bufferIn_ - 1;
  95:../../libDaisy//src/util/FIFO.h ****         if(idx < 0)
  96:../../libDaisy//src/util/FIFO.h ****             idx += bufferSize_;
  97:../../libDaisy//src/util/FIFO.h ****         return buffer_[idx];
  98:../../libDaisy//src/util/FIFO.h ****     }
  99:../../libDaisy//src/util/FIFO.h **** 
 100:../../libDaisy//src/util/FIFO.h ****     /** removes and returns an element from the front of the buffer */
 101:../../libDaisy//src/util/FIFO.h ****     T PopFront()
 102:../../libDaisy//src/util/FIFO.h ****     {
 103:../../libDaisy//src/util/FIFO.h ****         if(IsEmpty())
 104:../../libDaisy//src/util/FIFO.h ****             return T();
 105:../../libDaisy//src/util/FIFO.h ****         else
 106:../../libDaisy//src/util/FIFO.h ****         {
 107:../../libDaisy//src/util/FIFO.h ****             const auto result = buffer_[bufferOut_];
 108:../../libDaisy//src/util/FIFO.h ****             bufferOut_++;
 109:../../libDaisy//src/util/FIFO.h ****             if(bufferOut_ >= bufferSize_)
 110:../../libDaisy//src/util/FIFO.h ****                 bufferOut_ -= bufferSize_;
 111:../../libDaisy//src/util/FIFO.h ****             return result;
 112:../../libDaisy//src/util/FIFO.h ****         }
 113:../../libDaisy//src/util/FIFO.h ****     }
 114:../../libDaisy//src/util/FIFO.h **** 
 115:../../libDaisy//src/util/FIFO.h ****     /** returns a copy of the first element */
 116:../../libDaisy//src/util/FIFO.h ****     T& Front()
 117:../../libDaisy//src/util/FIFO.h ****     {
 118:../../libDaisy//src/util/FIFO.h ****         if(IsEmpty())
 119:../../libDaisy//src/util/FIFO.h ****             // invalid, but better not pass a temporary T() object as a reference...
 120:../../libDaisy//src/util/FIFO.h ****             return buffer_[0];
 121:../../libDaisy//src/util/FIFO.h ****         return buffer_[bufferOut_];
 122:../../libDaisy//src/util/FIFO.h ****     }
 123:../../libDaisy//src/util/FIFO.h **** 
 124:../../libDaisy//src/util/FIFO.h ****     /** returns a reference to the first element */
 125:../../libDaisy//src/util/FIFO.h ****     const T& Front() const
 126:../../libDaisy//src/util/FIFO.h ****     {
 127:../../libDaisy//src/util/FIFO.h ****         if(IsEmpty())
 128:../../libDaisy//src/util/FIFO.h ****             // invalid, but better not pass a temporary T() object as a reference...
ARM GAS  C:\Users\ryota\AppData\Local\Temp\ccNuOPtY.s 			page 6


 129:../../libDaisy//src/util/FIFO.h ****             return buffer_[0];
 130:../../libDaisy//src/util/FIFO.h ****         return buffer_[bufferOut_];
 131:../../libDaisy//src/util/FIFO.h ****     }
 132:../../libDaisy//src/util/FIFO.h **** 
 133:../../libDaisy//src/util/FIFO.h ****     /** Returns true if the buffer contains an element equal to the provided value */
 134:../../libDaisy//src/util/FIFO.h ****     bool Contains(const T& element)
 135:../../libDaisy//src/util/FIFO.h ****     {
 136:../../libDaisy//src/util/FIFO.h ****         auto idx = bufferOut_;
 137:../../libDaisy//src/util/FIFO.h ****         while(idx != bufferIn_)
 138:../../libDaisy//src/util/FIFO.h ****         {
 139:../../libDaisy//src/util/FIFO.h ****             if(buffer_[idx] == element)
 140:../../libDaisy//src/util/FIFO.h ****                 return true;
 141:../../libDaisy//src/util/FIFO.h ****             idx++;
 142:../../libDaisy//src/util/FIFO.h ****             if(idx >= bufferSize_)
 143:../../libDaisy//src/util/FIFO.h ****                 idx -= bufferSize_;
 144:../../libDaisy//src/util/FIFO.h ****         }
 145:../../libDaisy//src/util/FIFO.h ****         return false;
 146:../../libDaisy//src/util/FIFO.h ****     }
 147:../../libDaisy//src/util/FIFO.h **** 
 148:../../libDaisy//src/util/FIFO.h ****     /** Returns the number of elements in the buffer that are equal to the provided value */
 149:../../libDaisy//src/util/FIFO.h ****     size_t CountEqualTo(const T& element)
 150:../../libDaisy//src/util/FIFO.h ****     {
 151:../../libDaisy//src/util/FIFO.h ****         size_t result = 0;
 152:../../libDaisy//src/util/FIFO.h ****         size_t idx    = bufferOut_;
 153:../../libDaisy//src/util/FIFO.h ****         while(idx != bufferIn_)
 154:../../libDaisy//src/util/FIFO.h ****         {
 155:../../libDaisy//src/util/FIFO.h ****             if(buffer_[idx] == element)
 156:../../libDaisy//src/util/FIFO.h ****                 result++;
 157:../../libDaisy//src/util/FIFO.h ****             idx++;
 158:../../libDaisy//src/util/FIFO.h ****             if(idx >= bufferSize_)
 159:../../libDaisy//src/util/FIFO.h ****                 idx -= bufferSize_;
 160:../../libDaisy//src/util/FIFO.h ****         }
 161:../../libDaisy//src/util/FIFO.h ****         return result;
 162:../../libDaisy//src/util/FIFO.h ****     }
 163:../../libDaisy//src/util/FIFO.h **** 
 164:../../libDaisy//src/util/FIFO.h ****     /** returns true, if the buffer is empty */
 165:../../libDaisy//src/util/FIFO.h ****     bool IsEmpty() const { return bufferIn_ == bufferOut_; }
 166:../../libDaisy//src/util/FIFO.h **** 
 167:../../libDaisy//src/util/FIFO.h ****     /** returns true, if the buffer is Full */
 168:../../libDaisy//src/util/FIFO.h ****     bool IsFull() const { return GetNumElements() == bufferSize_ - 1; }
  77              		.loc 2 168 10 view .LVU12
  78              	.LBB493:
  79              	.LBB494:
  80              	.LBI494:
 169:../../libDaisy//src/util/FIFO.h **** 
 170:../../libDaisy//src/util/FIFO.h ****     /** returns the number of elements in the buffer */
 171:../../libDaisy//src/util/FIFO.h ****     size_t GetNumElements() const
  81              		.loc 2 171 12 view .LVU13
  82              	.LBB495:
 172:../../libDaisy//src/util/FIFO.h ****     {
 173:../../libDaisy//src/util/FIFO.h ****         int32_t numElements = bufferIn_ - bufferOut_;
 174:../../libDaisy//src/util/FIFO.h ****         if(numElements < 0)
 175:../../libDaisy//src/util/FIFO.h ****             numElements += bufferSize_;
  83              		.loc 2 175 28 is_stmt 0 view .LVU14
  84 0018 9D68     		ldr	r5, [r3, #8]
 173:../../libDaisy//src/util/FIFO.h ****         if(numElements < 0)
  85              		.loc 2 173 41 view .LVU15
ARM GAS  C:\Users\ryota\AppData\Local\Temp\ccNuOPtY.s 			page 7


  86 001a D3E90342 		ldrd	r4, r2, [r3, #12]
  87              	.LVL4:
 174:../../libDaisy//src/util/FIFO.h ****             numElements += bufferSize_;
  88              		.loc 2 174 9 view .LVU16
  89 001e A21A     		subs	r2, r4, r2
  90              	.LVL5:
 174:../../libDaisy//src/util/FIFO.h ****             numElements += bufferSize_;
  91              		.loc 2 174 9 view .LVU17
  92              	.LBE495:
  93              	.LBE494:
  94              	.LBE493:
  95              	.LBE492:
  53:../../libDaisy//src/util/FIFO.h ****             if(bufferIn_ >= bufferSize_)
  96              		.loc 2 53 20 view .LVU18
  97 0020 04F1010E 		add	lr, r4, #1
  98              	.LBB499:
  99              	.LBB498:
 100              	.LBB497:
 101              	.LBB496:
 102              		.loc 2 175 25 view .LVU19
 103 0024 48BF     		it	mi
 104 0026 5219     		addmi	r2, r2, r5
 105              	.LVL6:
 106              		.loc 2 175 25 view .LVU20
 107              	.LBE496:
 108              	.LBE497:
 168:../../libDaisy//src/util/FIFO.h **** 
 109              		.loc 2 168 66 view .LVU21
 110 0028 013D     		subs	r5, r5, #1
 111              	.LBE498:
 112              	.LBE499:
  51:../../libDaisy//src/util/FIFO.h ****         {
 113              		.loc 2 51 9 view .LVU22
 114 002a 9542     		cmp	r5, r2
 115 002c 0DD0     		beq	.L6
  53:../../libDaisy//src/util/FIFO.h ****             if(bufferIn_ >= bufferSize_)
 116              		.loc 2 53 20 view .LVU23
 117 002e C3F80CE0 		str	lr, [r3, #12]
  53:../../libDaisy//src/util/FIFO.h ****             if(bufferIn_ >= bufferSize_)
 118              		.loc 2 53 13 view .LVU24
 119 0032 5A68     		ldr	r2, [r3, #4]
  53:../../libDaisy//src/util/FIFO.h ****             if(bufferIn_ >= bufferSize_)
 120              		.loc 2 53 34 view .LVU25
 121 0034 10F80C50 		ldrb	r5, [r0, ip]	@ zero_extendqisi2
 122 0038 1555     		strb	r5, [r2, r4]
 123              	.LVL7:
  53:../../libDaisy//src/util/FIFO.h ****             if(bufferIn_ >= bufferSize_)
 124              		.loc 2 53 34 view .LVU26
 125 003a 0F68     		ldr	r7, [r1]
  54:../../libDaisy//src/util/FIFO.h ****                 bufferIn_ -= bufferSize_;
 126              		.loc 2 54 29 view .LVU27
 127 003c D3E90242 		ldrd	r4, r2, [r3, #8]
  54:../../libDaisy//src/util/FIFO.h ****                 bufferIn_ -= bufferSize_;
 128              		.loc 2 54 13 view .LVU28
 129 0040 A242     		cmp	r2, r4
  55:../../libDaisy//src/util/FIFO.h ****             return true;
 130              		.loc 2 55 27 view .LVU29
ARM GAS  C:\Users\ryota\AppData\Local\Temp\ccNuOPtY.s 			page 8


 131 0042 A2EB0402 		sub	r2, r2, r4
 132 0046 28BF     		it	cs
 133 0048 DA60     		strcs	r2, [r3, #12]
 134              	.L6:
  55:../../libDaisy//src/util/FIFO.h ****             return true;
 135              		.loc 2 55 27 view .LVU30
 136              	.LBE491:
 137              	.LBE490:
  80:library/serial_library.cpp ****             instance_->msg_fifo_.PushBack(buff[i]);
 138              		.loc 1 80 9 is_stmt 1 view .LVU31
 139 004a 0CF1010C 		add	ip, ip, #1
 140              	.LVL8:
  80:library/serial_library.cpp ****             instance_->msg_fifo_.PushBack(buff[i]);
 141              		.loc 1 80 32 view .LVU32
 142 004e 6745     		cmp	r7, ip
 143 0050 E1D8     		bhi	.L26
 144              	.LVL9:
 145              	.L1:
  80:library/serial_library.cpp ****             instance_->msg_fifo_.PushBack(buff[i]);
 146              		.loc 1 80 32 is_stmt 0 view .LVU33
 147              	.LBE489:
 148              	.LBE488:
  82:library/serial_library.cpp ****         }
  83:library/serial_library.cpp ****     }
  84:library/serial_library.cpp **** } ...
 149              		.loc 1 84 1 view .LVU34
 150 0052 F0BD     		pop	{r4, r5, r6, r7, pc}
 151              	.L28:
 152              		.align	2
 153              	.L27:
 154 0054 00000000 		.word	.LANCHOR0
 155              		.cfi_endproc
 156              	.LFE3181:
 158              		.section	.rodata._ZNSt7__cxx1112basic_stringIcSt11char_traitsIcESaIcEE12_M_constructIPcEEvT_S7_St2
 159              		.align	2
 160              	.LC0:
 161 0000 62617369 		.ascii	"basic_string::_M_construct null not valid\000"
 161      635F7374 
 161      72696E67 
 161      3A3A5F4D 
 161      5F636F6E 
 162              		.section	.text._ZNSt7__cxx1112basic_stringIcSt11char_traitsIcESaIcEE12_M_constructIPcEEvT_S7_St20f
 163              		.align	1
 164              		.p2align 2,,3
 165              		.syntax unified
 166              		.thumb
 167              		.thumb_func
 168              		.fpu fpv5-d16
 170              	_ZNSt7__cxx1112basic_stringIcSt11char_traitsIcESaIcEE12_M_constructIPcEEvT_S7_St20forward_iterator_
 171              	.LVL10:
 172              	.LFB3700:
 173              		.file 3 "c:\\program files\\daisytoolchain\\arm-none-eabi\\include\\c++\\10.2.1\\bits\\basic_strin
   1:c:\program files\daisytoolchain\arm-none-eabi\include\c++\10.2.1\bits\basic_string.tcc **** // Components for manipulating sequences of characters -*- C++ -*-
   2:c:\program files\daisytoolchain\arm-none-eabi\include\c++\10.2.1\bits\basic_string.tcc **** 
   3:c:\program files\daisytoolchain\arm-none-eabi\include\c++\10.2.1\bits\basic_string.tcc **** // Copyright (C) 1997-2020 Free Software Foundation, Inc.
   4:c:\program files\daisytoolchain\arm-none-eabi\include\c++\10.2.1\bits\basic_string.tcc **** //
   5:c:\program files\daisytoolchain\arm-none-eabi\include\c++\10.2.1\bits\basic_string.tcc **** // This file is part of the GNU ISO C++ Library.  This library is free
ARM GAS  C:\Users\ryota\AppData\Local\Temp\ccNuOPtY.s 			page 9


   6:c:\program files\daisytoolchain\arm-none-eabi\include\c++\10.2.1\bits\basic_string.tcc **** // software; you can redistribute it and/or modify it under the
   7:c:\program files\daisytoolchain\arm-none-eabi\include\c++\10.2.1\bits\basic_string.tcc **** // terms of the GNU General Public License as published by the
   8:c:\program files\daisytoolchain\arm-none-eabi\include\c++\10.2.1\bits\basic_string.tcc **** // Free Software Foundation; either version 3, or (at your option)
   9:c:\program files\daisytoolchain\arm-none-eabi\include\c++\10.2.1\bits\basic_string.tcc **** // any later version.
  10:c:\program files\daisytoolchain\arm-none-eabi\include\c++\10.2.1\bits\basic_string.tcc **** 
  11:c:\program files\daisytoolchain\arm-none-eabi\include\c++\10.2.1\bits\basic_string.tcc **** // This library is distributed in the hope that it will be useful,
  12:c:\program files\daisytoolchain\arm-none-eabi\include\c++\10.2.1\bits\basic_string.tcc **** // but WITHOUT ANY WARRANTY; without even the implied warranty of
  13:c:\program files\daisytoolchain\arm-none-eabi\include\c++\10.2.1\bits\basic_string.tcc **** // MERCHANTABILITY or FITNESS FOR A PARTICULAR PURPOSE.  See the
  14:c:\program files\daisytoolchain\arm-none-eabi\include\c++\10.2.1\bits\basic_string.tcc **** // GNU General Public License for more details.
  15:c:\program files\daisytoolchain\arm-none-eabi\include\c++\10.2.1\bits\basic_string.tcc **** 
  16:c:\program files\daisytoolchain\arm-none-eabi\include\c++\10.2.1\bits\basic_string.tcc **** // Under Section 7 of GPL version 3, you are granted additional
  17:c:\program files\daisytoolchain\arm-none-eabi\include\c++\10.2.1\bits\basic_string.tcc **** // permissions described in the GCC Runtime Library Exception, version
  18:c:\program files\daisytoolchain\arm-none-eabi\include\c++\10.2.1\bits\basic_string.tcc **** // 3.1, as published by the Free Software Foundation.
  19:c:\program files\daisytoolchain\arm-none-eabi\include\c++\10.2.1\bits\basic_string.tcc **** 
  20:c:\program files\daisytoolchain\arm-none-eabi\include\c++\10.2.1\bits\basic_string.tcc **** // You should have received a copy of the GNU General Public License and
  21:c:\program files\daisytoolchain\arm-none-eabi\include\c++\10.2.1\bits\basic_string.tcc **** // a copy of the GCC Runtime Library Exception along with this program;
  22:c:\program files\daisytoolchain\arm-none-eabi\include\c++\10.2.1\bits\basic_string.tcc **** // see the files COPYING3 and COPYING.RUNTIME respectively.  If not, see
  23:c:\program files\daisytoolchain\arm-none-eabi\include\c++\10.2.1\bits\basic_string.tcc **** // <http://www.gnu.org/licenses/>.
  24:c:\program files\daisytoolchain\arm-none-eabi\include\c++\10.2.1\bits\basic_string.tcc **** 
  25:c:\program files\daisytoolchain\arm-none-eabi\include\c++\10.2.1\bits\basic_string.tcc **** /** @file bits/basic_string.tcc
  26:c:\program files\daisytoolchain\arm-none-eabi\include\c++\10.2.1\bits\basic_string.tcc ****  *  This is an internal header file, included by other library headers.
  27:c:\program files\daisytoolchain\arm-none-eabi\include\c++\10.2.1\bits\basic_string.tcc ****  *  Do not attempt to use it directly. @headername{string}
  28:c:\program files\daisytoolchain\arm-none-eabi\include\c++\10.2.1\bits\basic_string.tcc ****  */
  29:c:\program files\daisytoolchain\arm-none-eabi\include\c++\10.2.1\bits\basic_string.tcc **** 
  30:c:\program files\daisytoolchain\arm-none-eabi\include\c++\10.2.1\bits\basic_string.tcc **** //
  31:c:\program files\daisytoolchain\arm-none-eabi\include\c++\10.2.1\bits\basic_string.tcc **** // ISO C++ 14882: 21  Strings library
  32:c:\program files\daisytoolchain\arm-none-eabi\include\c++\10.2.1\bits\basic_string.tcc **** //
  33:c:\program files\daisytoolchain\arm-none-eabi\include\c++\10.2.1\bits\basic_string.tcc **** 
  34:c:\program files\daisytoolchain\arm-none-eabi\include\c++\10.2.1\bits\basic_string.tcc **** // Written by Jason Merrill based upon the specification by Takanori Adachi
  35:c:\program files\daisytoolchain\arm-none-eabi\include\c++\10.2.1\bits\basic_string.tcc **** // in ANSI X3J16/94-0013R2.  Rewritten by Nathan Myers to ISO-14882.
  36:c:\program files\daisytoolchain\arm-none-eabi\include\c++\10.2.1\bits\basic_string.tcc **** // Non-reference-counted implementation written by Paolo Carlini and
  37:c:\program files\daisytoolchain\arm-none-eabi\include\c++\10.2.1\bits\basic_string.tcc **** // updated by Jonathan Wakely for ISO-14882-2011.
  38:c:\program files\daisytoolchain\arm-none-eabi\include\c++\10.2.1\bits\basic_string.tcc **** 
  39:c:\program files\daisytoolchain\arm-none-eabi\include\c++\10.2.1\bits\basic_string.tcc **** #ifndef _BASIC_STRING_TCC
  40:c:\program files\daisytoolchain\arm-none-eabi\include\c++\10.2.1\bits\basic_string.tcc **** #define _BASIC_STRING_TCC 1
  41:c:\program files\daisytoolchain\arm-none-eabi\include\c++\10.2.1\bits\basic_string.tcc **** 
  42:c:\program files\daisytoolchain\arm-none-eabi\include\c++\10.2.1\bits\basic_string.tcc **** #pragma GCC system_header
  43:c:\program files\daisytoolchain\arm-none-eabi\include\c++\10.2.1\bits\basic_string.tcc **** 
  44:c:\program files\daisytoolchain\arm-none-eabi\include\c++\10.2.1\bits\basic_string.tcc **** #include <bits/cxxabi_forced.h>
  45:c:\program files\daisytoolchain\arm-none-eabi\include\c++\10.2.1\bits\basic_string.tcc **** 
  46:c:\program files\daisytoolchain\arm-none-eabi\include\c++\10.2.1\bits\basic_string.tcc **** namespace std _GLIBCXX_VISIBILITY(default)
  47:c:\program files\daisytoolchain\arm-none-eabi\include\c++\10.2.1\bits\basic_string.tcc **** {
  48:c:\program files\daisytoolchain\arm-none-eabi\include\c++\10.2.1\bits\basic_string.tcc **** _GLIBCXX_BEGIN_NAMESPACE_VERSION
  49:c:\program files\daisytoolchain\arm-none-eabi\include\c++\10.2.1\bits\basic_string.tcc **** 
  50:c:\program files\daisytoolchain\arm-none-eabi\include\c++\10.2.1\bits\basic_string.tcc **** #if _GLIBCXX_USE_CXX11_ABI
  51:c:\program files\daisytoolchain\arm-none-eabi\include\c++\10.2.1\bits\basic_string.tcc **** 
  52:c:\program files\daisytoolchain\arm-none-eabi\include\c++\10.2.1\bits\basic_string.tcc ****   template<typename _CharT, typename _Traits, typename _Alloc>
  53:c:\program files\daisytoolchain\arm-none-eabi\include\c++\10.2.1\bits\basic_string.tcc ****     const typename basic_string<_CharT, _Traits, _Alloc>::size_type
  54:c:\program files\daisytoolchain\arm-none-eabi\include\c++\10.2.1\bits\basic_string.tcc ****     basic_string<_CharT, _Traits, _Alloc>::npos;
  55:c:\program files\daisytoolchain\arm-none-eabi\include\c++\10.2.1\bits\basic_string.tcc **** 
  56:c:\program files\daisytoolchain\arm-none-eabi\include\c++\10.2.1\bits\basic_string.tcc ****   template<typename _CharT, typename _Traits, typename _Alloc>
  57:c:\program files\daisytoolchain\arm-none-eabi\include\c++\10.2.1\bits\basic_string.tcc ****     void
  58:c:\program files\daisytoolchain\arm-none-eabi\include\c++\10.2.1\bits\basic_string.tcc ****     basic_string<_CharT, _Traits, _Alloc>::
  59:c:\program files\daisytoolchain\arm-none-eabi\include\c++\10.2.1\bits\basic_string.tcc ****     swap(basic_string& __s) _GLIBCXX_NOEXCEPT
  60:c:\program files\daisytoolchain\arm-none-eabi\include\c++\10.2.1\bits\basic_string.tcc ****     {
  61:c:\program files\daisytoolchain\arm-none-eabi\include\c++\10.2.1\bits\basic_string.tcc ****       if (this == &__s)
  62:c:\program files\daisytoolchain\arm-none-eabi\include\c++\10.2.1\bits\basic_string.tcc **** 	return;
ARM GAS  C:\Users\ryota\AppData\Local\Temp\ccNuOPtY.s 			page 10


  63:c:\program files\daisytoolchain\arm-none-eabi\include\c++\10.2.1\bits\basic_string.tcc **** 
  64:c:\program files\daisytoolchain\arm-none-eabi\include\c++\10.2.1\bits\basic_string.tcc ****       _Alloc_traits::_S_on_swap(_M_get_allocator(), __s._M_get_allocator());
  65:c:\program files\daisytoolchain\arm-none-eabi\include\c++\10.2.1\bits\basic_string.tcc **** 
  66:c:\program files\daisytoolchain\arm-none-eabi\include\c++\10.2.1\bits\basic_string.tcc ****       if (_M_is_local())
  67:c:\program files\daisytoolchain\arm-none-eabi\include\c++\10.2.1\bits\basic_string.tcc **** 	if (__s._M_is_local())
  68:c:\program files\daisytoolchain\arm-none-eabi\include\c++\10.2.1\bits\basic_string.tcc **** 	  {
  69:c:\program files\daisytoolchain\arm-none-eabi\include\c++\10.2.1\bits\basic_string.tcc **** 	    if (length() && __s.length())
  70:c:\program files\daisytoolchain\arm-none-eabi\include\c++\10.2.1\bits\basic_string.tcc **** 	      {
  71:c:\program files\daisytoolchain\arm-none-eabi\include\c++\10.2.1\bits\basic_string.tcc **** 		_CharT __tmp_data[_S_local_capacity + 1];
  72:c:\program files\daisytoolchain\arm-none-eabi\include\c++\10.2.1\bits\basic_string.tcc **** 		traits_type::copy(__tmp_data, __s._M_local_buf,
  73:c:\program files\daisytoolchain\arm-none-eabi\include\c++\10.2.1\bits\basic_string.tcc **** 				  _S_local_capacity + 1);
  74:c:\program files\daisytoolchain\arm-none-eabi\include\c++\10.2.1\bits\basic_string.tcc **** 		traits_type::copy(__s._M_local_buf, _M_local_buf,
  75:c:\program files\daisytoolchain\arm-none-eabi\include\c++\10.2.1\bits\basic_string.tcc **** 				  _S_local_capacity + 1);
  76:c:\program files\daisytoolchain\arm-none-eabi\include\c++\10.2.1\bits\basic_string.tcc **** 		traits_type::copy(_M_local_buf, __tmp_data,
  77:c:\program files\daisytoolchain\arm-none-eabi\include\c++\10.2.1\bits\basic_string.tcc **** 				  _S_local_capacity + 1);
  78:c:\program files\daisytoolchain\arm-none-eabi\include\c++\10.2.1\bits\basic_string.tcc **** 	      }
  79:c:\program files\daisytoolchain\arm-none-eabi\include\c++\10.2.1\bits\basic_string.tcc **** 	    else if (__s.length())
  80:c:\program files\daisytoolchain\arm-none-eabi\include\c++\10.2.1\bits\basic_string.tcc **** 	      {
  81:c:\program files\daisytoolchain\arm-none-eabi\include\c++\10.2.1\bits\basic_string.tcc **** 		traits_type::copy(_M_local_buf, __s._M_local_buf,
  82:c:\program files\daisytoolchain\arm-none-eabi\include\c++\10.2.1\bits\basic_string.tcc **** 				  _S_local_capacity + 1);
  83:c:\program files\daisytoolchain\arm-none-eabi\include\c++\10.2.1\bits\basic_string.tcc **** 		_M_length(__s.length());
  84:c:\program files\daisytoolchain\arm-none-eabi\include\c++\10.2.1\bits\basic_string.tcc **** 		__s._M_set_length(0);
  85:c:\program files\daisytoolchain\arm-none-eabi\include\c++\10.2.1\bits\basic_string.tcc **** 		return;
  86:c:\program files\daisytoolchain\arm-none-eabi\include\c++\10.2.1\bits\basic_string.tcc **** 	      }
  87:c:\program files\daisytoolchain\arm-none-eabi\include\c++\10.2.1\bits\basic_string.tcc **** 	    else if (length())
  88:c:\program files\daisytoolchain\arm-none-eabi\include\c++\10.2.1\bits\basic_string.tcc **** 	      {
  89:c:\program files\daisytoolchain\arm-none-eabi\include\c++\10.2.1\bits\basic_string.tcc **** 		traits_type::copy(__s._M_local_buf, _M_local_buf,
  90:c:\program files\daisytoolchain\arm-none-eabi\include\c++\10.2.1\bits\basic_string.tcc **** 				  _S_local_capacity + 1);
  91:c:\program files\daisytoolchain\arm-none-eabi\include\c++\10.2.1\bits\basic_string.tcc **** 		__s._M_length(length());
  92:c:\program files\daisytoolchain\arm-none-eabi\include\c++\10.2.1\bits\basic_string.tcc **** 		_M_set_length(0);
  93:c:\program files\daisytoolchain\arm-none-eabi\include\c++\10.2.1\bits\basic_string.tcc **** 		return;
  94:c:\program files\daisytoolchain\arm-none-eabi\include\c++\10.2.1\bits\basic_string.tcc **** 	      }
  95:c:\program files\daisytoolchain\arm-none-eabi\include\c++\10.2.1\bits\basic_string.tcc **** 	  }
  96:c:\program files\daisytoolchain\arm-none-eabi\include\c++\10.2.1\bits\basic_string.tcc **** 	else
  97:c:\program files\daisytoolchain\arm-none-eabi\include\c++\10.2.1\bits\basic_string.tcc **** 	  {
  98:c:\program files\daisytoolchain\arm-none-eabi\include\c++\10.2.1\bits\basic_string.tcc **** 	    const size_type __tmp_capacity = __s._M_allocated_capacity;
  99:c:\program files\daisytoolchain\arm-none-eabi\include\c++\10.2.1\bits\basic_string.tcc **** 	    traits_type::copy(__s._M_local_buf, _M_local_buf,
 100:c:\program files\daisytoolchain\arm-none-eabi\include\c++\10.2.1\bits\basic_string.tcc **** 			      _S_local_capacity + 1);
 101:c:\program files\daisytoolchain\arm-none-eabi\include\c++\10.2.1\bits\basic_string.tcc **** 	    _M_data(__s._M_data());
 102:c:\program files\daisytoolchain\arm-none-eabi\include\c++\10.2.1\bits\basic_string.tcc **** 	    __s._M_data(__s._M_local_buf);
 103:c:\program files\daisytoolchain\arm-none-eabi\include\c++\10.2.1\bits\basic_string.tcc **** 	    _M_capacity(__tmp_capacity);
 104:c:\program files\daisytoolchain\arm-none-eabi\include\c++\10.2.1\bits\basic_string.tcc **** 	  }
 105:c:\program files\daisytoolchain\arm-none-eabi\include\c++\10.2.1\bits\basic_string.tcc ****       else
 106:c:\program files\daisytoolchain\arm-none-eabi\include\c++\10.2.1\bits\basic_string.tcc **** 	{
 107:c:\program files\daisytoolchain\arm-none-eabi\include\c++\10.2.1\bits\basic_string.tcc **** 	  const size_type __tmp_capacity = _M_allocated_capacity;
 108:c:\program files\daisytoolchain\arm-none-eabi\include\c++\10.2.1\bits\basic_string.tcc **** 	  if (__s._M_is_local())
 109:c:\program files\daisytoolchain\arm-none-eabi\include\c++\10.2.1\bits\basic_string.tcc **** 	    {
 110:c:\program files\daisytoolchain\arm-none-eabi\include\c++\10.2.1\bits\basic_string.tcc **** 	      traits_type::copy(_M_local_buf, __s._M_local_buf,
 111:c:\program files\daisytoolchain\arm-none-eabi\include\c++\10.2.1\bits\basic_string.tcc **** 				_S_local_capacity + 1);
 112:c:\program files\daisytoolchain\arm-none-eabi\include\c++\10.2.1\bits\basic_string.tcc **** 	      __s._M_data(_M_data());
 113:c:\program files\daisytoolchain\arm-none-eabi\include\c++\10.2.1\bits\basic_string.tcc **** 	      _M_data(_M_local_buf);
 114:c:\program files\daisytoolchain\arm-none-eabi\include\c++\10.2.1\bits\basic_string.tcc **** 	    }
 115:c:\program files\daisytoolchain\arm-none-eabi\include\c++\10.2.1\bits\basic_string.tcc **** 	  else
 116:c:\program files\daisytoolchain\arm-none-eabi\include\c++\10.2.1\bits\basic_string.tcc **** 	    {
 117:c:\program files\daisytoolchain\arm-none-eabi\include\c++\10.2.1\bits\basic_string.tcc **** 	      pointer __tmp_ptr = _M_data();
 118:c:\program files\daisytoolchain\arm-none-eabi\include\c++\10.2.1\bits\basic_string.tcc **** 	      _M_data(__s._M_data());
 119:c:\program files\daisytoolchain\arm-none-eabi\include\c++\10.2.1\bits\basic_string.tcc **** 	      __s._M_data(__tmp_ptr);
ARM GAS  C:\Users\ryota\AppData\Local\Temp\ccNuOPtY.s 			page 11


 120:c:\program files\daisytoolchain\arm-none-eabi\include\c++\10.2.1\bits\basic_string.tcc **** 	      _M_capacity(__s._M_allocated_capacity);
 121:c:\program files\daisytoolchain\arm-none-eabi\include\c++\10.2.1\bits\basic_string.tcc **** 	    }
 122:c:\program files\daisytoolchain\arm-none-eabi\include\c++\10.2.1\bits\basic_string.tcc **** 	  __s._M_capacity(__tmp_capacity);
 123:c:\program files\daisytoolchain\arm-none-eabi\include\c++\10.2.1\bits\basic_string.tcc **** 	}
 124:c:\program files\daisytoolchain\arm-none-eabi\include\c++\10.2.1\bits\basic_string.tcc **** 
 125:c:\program files\daisytoolchain\arm-none-eabi\include\c++\10.2.1\bits\basic_string.tcc ****       const size_type __tmp_length = length();
 126:c:\program files\daisytoolchain\arm-none-eabi\include\c++\10.2.1\bits\basic_string.tcc ****       _M_length(__s.length());
 127:c:\program files\daisytoolchain\arm-none-eabi\include\c++\10.2.1\bits\basic_string.tcc ****       __s._M_length(__tmp_length);
 128:c:\program files\daisytoolchain\arm-none-eabi\include\c++\10.2.1\bits\basic_string.tcc ****     }
 129:c:\program files\daisytoolchain\arm-none-eabi\include\c++\10.2.1\bits\basic_string.tcc **** 
 130:c:\program files\daisytoolchain\arm-none-eabi\include\c++\10.2.1\bits\basic_string.tcc ****   template<typename _CharT, typename _Traits, typename _Alloc>
 131:c:\program files\daisytoolchain\arm-none-eabi\include\c++\10.2.1\bits\basic_string.tcc ****     typename basic_string<_CharT, _Traits, _Alloc>::pointer
 132:c:\program files\daisytoolchain\arm-none-eabi\include\c++\10.2.1\bits\basic_string.tcc ****     basic_string<_CharT, _Traits, _Alloc>::
 133:c:\program files\daisytoolchain\arm-none-eabi\include\c++\10.2.1\bits\basic_string.tcc ****     _M_create(size_type& __capacity, size_type __old_capacity)
 134:c:\program files\daisytoolchain\arm-none-eabi\include\c++\10.2.1\bits\basic_string.tcc ****     {
 135:c:\program files\daisytoolchain\arm-none-eabi\include\c++\10.2.1\bits\basic_string.tcc ****       // _GLIBCXX_RESOLVE_LIB_DEFECTS
 136:c:\program files\daisytoolchain\arm-none-eabi\include\c++\10.2.1\bits\basic_string.tcc ****       // 83.  String::npos vs. string::max_size()
 137:c:\program files\daisytoolchain\arm-none-eabi\include\c++\10.2.1\bits\basic_string.tcc ****       if (__capacity > max_size())
 138:c:\program files\daisytoolchain\arm-none-eabi\include\c++\10.2.1\bits\basic_string.tcc **** 	std::__throw_length_error(__N("basic_string::_M_create"));
 139:c:\program files\daisytoolchain\arm-none-eabi\include\c++\10.2.1\bits\basic_string.tcc **** 
 140:c:\program files\daisytoolchain\arm-none-eabi\include\c++\10.2.1\bits\basic_string.tcc ****       // The below implements an exponential growth policy, necessary to
 141:c:\program files\daisytoolchain\arm-none-eabi\include\c++\10.2.1\bits\basic_string.tcc ****       // meet amortized linear time requirements of the library: see
 142:c:\program files\daisytoolchain\arm-none-eabi\include\c++\10.2.1\bits\basic_string.tcc ****       // http://gcc.gnu.org/ml/libstdc++/2001-07/msg00085.html.
 143:c:\program files\daisytoolchain\arm-none-eabi\include\c++\10.2.1\bits\basic_string.tcc ****       if (__capacity > __old_capacity && __capacity < 2 * __old_capacity)
 144:c:\program files\daisytoolchain\arm-none-eabi\include\c++\10.2.1\bits\basic_string.tcc **** 	{
 145:c:\program files\daisytoolchain\arm-none-eabi\include\c++\10.2.1\bits\basic_string.tcc **** 	  __capacity = 2 * __old_capacity;
 146:c:\program files\daisytoolchain\arm-none-eabi\include\c++\10.2.1\bits\basic_string.tcc **** 	  // Never allocate a string bigger than max_size.
 147:c:\program files\daisytoolchain\arm-none-eabi\include\c++\10.2.1\bits\basic_string.tcc **** 	  if (__capacity > max_size())
 148:c:\program files\daisytoolchain\arm-none-eabi\include\c++\10.2.1\bits\basic_string.tcc **** 	    __capacity = max_size();
 149:c:\program files\daisytoolchain\arm-none-eabi\include\c++\10.2.1\bits\basic_string.tcc **** 	}
 150:c:\program files\daisytoolchain\arm-none-eabi\include\c++\10.2.1\bits\basic_string.tcc **** 
 151:c:\program files\daisytoolchain\arm-none-eabi\include\c++\10.2.1\bits\basic_string.tcc ****       // NB: Need an array of char_type[__capacity], plus a terminating
 152:c:\program files\daisytoolchain\arm-none-eabi\include\c++\10.2.1\bits\basic_string.tcc ****       // null char_type() element.
 153:c:\program files\daisytoolchain\arm-none-eabi\include\c++\10.2.1\bits\basic_string.tcc ****       return _Alloc_traits::allocate(_M_get_allocator(), __capacity + 1);
 154:c:\program files\daisytoolchain\arm-none-eabi\include\c++\10.2.1\bits\basic_string.tcc ****     }
 155:c:\program files\daisytoolchain\arm-none-eabi\include\c++\10.2.1\bits\basic_string.tcc **** 
 156:c:\program files\daisytoolchain\arm-none-eabi\include\c++\10.2.1\bits\basic_string.tcc ****   // NB: This is the special case for Input Iterators, used in
 157:c:\program files\daisytoolchain\arm-none-eabi\include\c++\10.2.1\bits\basic_string.tcc ****   // istreambuf_iterators, etc.
 158:c:\program files\daisytoolchain\arm-none-eabi\include\c++\10.2.1\bits\basic_string.tcc ****   // Input Iterators have a cost structure very different from
 159:c:\program files\daisytoolchain\arm-none-eabi\include\c++\10.2.1\bits\basic_string.tcc ****   // pointers, calling for a different coding style.
 160:c:\program files\daisytoolchain\arm-none-eabi\include\c++\10.2.1\bits\basic_string.tcc ****   template<typename _CharT, typename _Traits, typename _Alloc>
 161:c:\program files\daisytoolchain\arm-none-eabi\include\c++\10.2.1\bits\basic_string.tcc ****     template<typename _InIterator>
 162:c:\program files\daisytoolchain\arm-none-eabi\include\c++\10.2.1\bits\basic_string.tcc ****       void
 163:c:\program files\daisytoolchain\arm-none-eabi\include\c++\10.2.1\bits\basic_string.tcc ****       basic_string<_CharT, _Traits, _Alloc>::
 164:c:\program files\daisytoolchain\arm-none-eabi\include\c++\10.2.1\bits\basic_string.tcc ****       _M_construct(_InIterator __beg, _InIterator __end,
 165:c:\program files\daisytoolchain\arm-none-eabi\include\c++\10.2.1\bits\basic_string.tcc **** 		   std::input_iterator_tag)
 166:c:\program files\daisytoolchain\arm-none-eabi\include\c++\10.2.1\bits\basic_string.tcc ****       {
 167:c:\program files\daisytoolchain\arm-none-eabi\include\c++\10.2.1\bits\basic_string.tcc **** 	size_type __len = 0;
 168:c:\program files\daisytoolchain\arm-none-eabi\include\c++\10.2.1\bits\basic_string.tcc **** 	size_type __capacity = size_type(_S_local_capacity);
 169:c:\program files\daisytoolchain\arm-none-eabi\include\c++\10.2.1\bits\basic_string.tcc **** 
 170:c:\program files\daisytoolchain\arm-none-eabi\include\c++\10.2.1\bits\basic_string.tcc **** 	while (__beg != __end && __len < __capacity)
 171:c:\program files\daisytoolchain\arm-none-eabi\include\c++\10.2.1\bits\basic_string.tcc **** 	  {
 172:c:\program files\daisytoolchain\arm-none-eabi\include\c++\10.2.1\bits\basic_string.tcc **** 	    _M_data()[__len++] = *__beg;
 173:c:\program files\daisytoolchain\arm-none-eabi\include\c++\10.2.1\bits\basic_string.tcc **** 	    ++__beg;
 174:c:\program files\daisytoolchain\arm-none-eabi\include\c++\10.2.1\bits\basic_string.tcc **** 	  }
 175:c:\program files\daisytoolchain\arm-none-eabi\include\c++\10.2.1\bits\basic_string.tcc **** 
 176:c:\program files\daisytoolchain\arm-none-eabi\include\c++\10.2.1\bits\basic_string.tcc **** 	__try
ARM GAS  C:\Users\ryota\AppData\Local\Temp\ccNuOPtY.s 			page 12


 177:c:\program files\daisytoolchain\arm-none-eabi\include\c++\10.2.1\bits\basic_string.tcc **** 	  {
 178:c:\program files\daisytoolchain\arm-none-eabi\include\c++\10.2.1\bits\basic_string.tcc **** 	    while (__beg != __end)
 179:c:\program files\daisytoolchain\arm-none-eabi\include\c++\10.2.1\bits\basic_string.tcc **** 	      {
 180:c:\program files\daisytoolchain\arm-none-eabi\include\c++\10.2.1\bits\basic_string.tcc **** 		if (__len == __capacity)
 181:c:\program files\daisytoolchain\arm-none-eabi\include\c++\10.2.1\bits\basic_string.tcc **** 		  {
 182:c:\program files\daisytoolchain\arm-none-eabi\include\c++\10.2.1\bits\basic_string.tcc **** 		    // Allocate more space.
 183:c:\program files\daisytoolchain\arm-none-eabi\include\c++\10.2.1\bits\basic_string.tcc **** 		    __capacity = __len + 1;
 184:c:\program files\daisytoolchain\arm-none-eabi\include\c++\10.2.1\bits\basic_string.tcc **** 		    pointer __another = _M_create(__capacity, __len);
 185:c:\program files\daisytoolchain\arm-none-eabi\include\c++\10.2.1\bits\basic_string.tcc **** 		    this->_S_copy(__another, _M_data(), __len);
 186:c:\program files\daisytoolchain\arm-none-eabi\include\c++\10.2.1\bits\basic_string.tcc **** 		    _M_dispose();
 187:c:\program files\daisytoolchain\arm-none-eabi\include\c++\10.2.1\bits\basic_string.tcc **** 		    _M_data(__another);
 188:c:\program files\daisytoolchain\arm-none-eabi\include\c++\10.2.1\bits\basic_string.tcc **** 		    _M_capacity(__capacity);
 189:c:\program files\daisytoolchain\arm-none-eabi\include\c++\10.2.1\bits\basic_string.tcc **** 		  }
 190:c:\program files\daisytoolchain\arm-none-eabi\include\c++\10.2.1\bits\basic_string.tcc **** 		_M_data()[__len++] = *__beg;
 191:c:\program files\daisytoolchain\arm-none-eabi\include\c++\10.2.1\bits\basic_string.tcc **** 		++__beg;
 192:c:\program files\daisytoolchain\arm-none-eabi\include\c++\10.2.1\bits\basic_string.tcc **** 	      }
 193:c:\program files\daisytoolchain\arm-none-eabi\include\c++\10.2.1\bits\basic_string.tcc **** 	  }
 194:c:\program files\daisytoolchain\arm-none-eabi\include\c++\10.2.1\bits\basic_string.tcc **** 	__catch(...)
 195:c:\program files\daisytoolchain\arm-none-eabi\include\c++\10.2.1\bits\basic_string.tcc **** 	  {
 196:c:\program files\daisytoolchain\arm-none-eabi\include\c++\10.2.1\bits\basic_string.tcc **** 	    _M_dispose();
 197:c:\program files\daisytoolchain\arm-none-eabi\include\c++\10.2.1\bits\basic_string.tcc **** 	    __throw_exception_again;
 198:c:\program files\daisytoolchain\arm-none-eabi\include\c++\10.2.1\bits\basic_string.tcc **** 	  }
 199:c:\program files\daisytoolchain\arm-none-eabi\include\c++\10.2.1\bits\basic_string.tcc **** 
 200:c:\program files\daisytoolchain\arm-none-eabi\include\c++\10.2.1\bits\basic_string.tcc **** 	_M_set_length(__len);
 201:c:\program files\daisytoolchain\arm-none-eabi\include\c++\10.2.1\bits\basic_string.tcc ****       }
 202:c:\program files\daisytoolchain\arm-none-eabi\include\c++\10.2.1\bits\basic_string.tcc **** 
 203:c:\program files\daisytoolchain\arm-none-eabi\include\c++\10.2.1\bits\basic_string.tcc ****   template<typename _CharT, typename _Traits, typename _Alloc>
 204:c:\program files\daisytoolchain\arm-none-eabi\include\c++\10.2.1\bits\basic_string.tcc ****     template<typename _InIterator>
 205:c:\program files\daisytoolchain\arm-none-eabi\include\c++\10.2.1\bits\basic_string.tcc ****       void
 206:c:\program files\daisytoolchain\arm-none-eabi\include\c++\10.2.1\bits\basic_string.tcc ****       basic_string<_CharT, _Traits, _Alloc>::
 174              		.loc 3 206 7 is_stmt 1 view -0
 175              		.cfi_startproc
 176              		@ args = 0, pretend = 0, frame = 8
 177              		@ frame_needed = 0, uses_anonymous_args = 0
 178              		.loc 3 206 7 is_stmt 0 view .LVU36
 179 0000 70B5     		push	{r4, r5, r6, lr}
 180              		.cfi_def_cfa_offset 16
 181              		.cfi_offset 4, -16
 182              		.cfi_offset 5, -12
 183              		.cfi_offset 6, -8
 184              		.cfi_offset 14, -4
 185 0002 0546     		mov	r5, r0
 186 0004 82B0     		sub	sp, sp, #8
 187              		.cfi_def_cfa_offset 24
 188              		.loc 3 206 7 view .LVU37
 189 0006 0E46     		mov	r6, r1
 207:c:\program files\daisytoolchain\arm-none-eabi\include\c++\10.2.1\bits\basic_string.tcc ****       _M_construct(_InIterator __beg, _InIterator __end,
 208:c:\program files\daisytoolchain\arm-none-eabi\include\c++\10.2.1\bits\basic_string.tcc **** 		   std::forward_iterator_tag)
 209:c:\program files\daisytoolchain\arm-none-eabi\include\c++\10.2.1\bits\basic_string.tcc ****       {
 210:c:\program files\daisytoolchain\arm-none-eabi\include\c++\10.2.1\bits\basic_string.tcc **** 	// NB: Not required, but considered best practice.
 211:c:\program files\daisytoolchain\arm-none-eabi\include\c++\10.2.1\bits\basic_string.tcc **** 	if (__gnu_cxx::__is_null_pointer(__beg) && __beg != __end)
 190              		.loc 3 211 42 view .LVU38
 191 0008 02B1     		cbz	r2, .L30
 192 000a 41B3     		cbz	r1, .L46
 193              	.L30:
 194              	.LVL11:
 195              	.LBB529:
ARM GAS  C:\Users\ryota\AppData\Local\Temp\ccNuOPtY.s 			page 13


 196              	.LBI529:
 197              		.file 4 "c:\\program files\\daisytoolchain\\arm-none-eabi\\include\\c++\\10.2.1\\bits\\stl_iterato
   1:c:\program files\daisytoolchain\arm-none-eabi\include\c++\10.2.1\bits\stl_iterator_base_funcs.h **** // Functions used by iterators -*- C++ -*-
   2:c:\program files\daisytoolchain\arm-none-eabi\include\c++\10.2.1\bits\stl_iterator_base_funcs.h **** 
   3:c:\program files\daisytoolchain\arm-none-eabi\include\c++\10.2.1\bits\stl_iterator_base_funcs.h **** // Copyright (C) 2001-2020 Free Software Foundation, Inc.
   4:c:\program files\daisytoolchain\arm-none-eabi\include\c++\10.2.1\bits\stl_iterator_base_funcs.h **** //
   5:c:\program files\daisytoolchain\arm-none-eabi\include\c++\10.2.1\bits\stl_iterator_base_funcs.h **** // This file is part of the GNU ISO C++ Library.  This library is free
   6:c:\program files\daisytoolchain\arm-none-eabi\include\c++\10.2.1\bits\stl_iterator_base_funcs.h **** // software; you can redistribute it and/or modify it under the
   7:c:\program files\daisytoolchain\arm-none-eabi\include\c++\10.2.1\bits\stl_iterator_base_funcs.h **** // terms of the GNU General Public License as published by the
   8:c:\program files\daisytoolchain\arm-none-eabi\include\c++\10.2.1\bits\stl_iterator_base_funcs.h **** // Free Software Foundation; either version 3, or (at your option)
   9:c:\program files\daisytoolchain\arm-none-eabi\include\c++\10.2.1\bits\stl_iterator_base_funcs.h **** // any later version.
  10:c:\program files\daisytoolchain\arm-none-eabi\include\c++\10.2.1\bits\stl_iterator_base_funcs.h **** 
  11:c:\program files\daisytoolchain\arm-none-eabi\include\c++\10.2.1\bits\stl_iterator_base_funcs.h **** // This library is distributed in the hope that it will be useful,
  12:c:\program files\daisytoolchain\arm-none-eabi\include\c++\10.2.1\bits\stl_iterator_base_funcs.h **** // but WITHOUT ANY WARRANTY; without even the implied warranty of
  13:c:\program files\daisytoolchain\arm-none-eabi\include\c++\10.2.1\bits\stl_iterator_base_funcs.h **** // MERCHANTABILITY or FITNESS FOR A PARTICULAR PURPOSE.  See the
  14:c:\program files\daisytoolchain\arm-none-eabi\include\c++\10.2.1\bits\stl_iterator_base_funcs.h **** // GNU General Public License for more details.
  15:c:\program files\daisytoolchain\arm-none-eabi\include\c++\10.2.1\bits\stl_iterator_base_funcs.h **** 
  16:c:\program files\daisytoolchain\arm-none-eabi\include\c++\10.2.1\bits\stl_iterator_base_funcs.h **** // Under Section 7 of GPL version 3, you are granted additional
  17:c:\program files\daisytoolchain\arm-none-eabi\include\c++\10.2.1\bits\stl_iterator_base_funcs.h **** // permissions described in the GCC Runtime Library Exception, version
  18:c:\program files\daisytoolchain\arm-none-eabi\include\c++\10.2.1\bits\stl_iterator_base_funcs.h **** // 3.1, as published by the Free Software Foundation.
  19:c:\program files\daisytoolchain\arm-none-eabi\include\c++\10.2.1\bits\stl_iterator_base_funcs.h **** 
  20:c:\program files\daisytoolchain\arm-none-eabi\include\c++\10.2.1\bits\stl_iterator_base_funcs.h **** // You should have received a copy of the GNU General Public License and
  21:c:\program files\daisytoolchain\arm-none-eabi\include\c++\10.2.1\bits\stl_iterator_base_funcs.h **** // a copy of the GCC Runtime Library Exception along with this program;
  22:c:\program files\daisytoolchain\arm-none-eabi\include\c++\10.2.1\bits\stl_iterator_base_funcs.h **** // see the files COPYING3 and COPYING.RUNTIME respectively.  If not, see
  23:c:\program files\daisytoolchain\arm-none-eabi\include\c++\10.2.1\bits\stl_iterator_base_funcs.h **** // <http://www.gnu.org/licenses/>.
  24:c:\program files\daisytoolchain\arm-none-eabi\include\c++\10.2.1\bits\stl_iterator_base_funcs.h **** 
  25:c:\program files\daisytoolchain\arm-none-eabi\include\c++\10.2.1\bits\stl_iterator_base_funcs.h **** /*
  26:c:\program files\daisytoolchain\arm-none-eabi\include\c++\10.2.1\bits\stl_iterator_base_funcs.h ****  *
  27:c:\program files\daisytoolchain\arm-none-eabi\include\c++\10.2.1\bits\stl_iterator_base_funcs.h ****  * Copyright (c) 1994
  28:c:\program files\daisytoolchain\arm-none-eabi\include\c++\10.2.1\bits\stl_iterator_base_funcs.h ****  * Hewlett-Packard Company
  29:c:\program files\daisytoolchain\arm-none-eabi\include\c++\10.2.1\bits\stl_iterator_base_funcs.h ****  *
  30:c:\program files\daisytoolchain\arm-none-eabi\include\c++\10.2.1\bits\stl_iterator_base_funcs.h ****  * Permission to use, copy, modify, distribute and sell this software
  31:c:\program files\daisytoolchain\arm-none-eabi\include\c++\10.2.1\bits\stl_iterator_base_funcs.h ****  * and its documentation for any purpose is hereby granted without fee,
  32:c:\program files\daisytoolchain\arm-none-eabi\include\c++\10.2.1\bits\stl_iterator_base_funcs.h ****  * provided that the above copyright notice appear in all copies and
  33:c:\program files\daisytoolchain\arm-none-eabi\include\c++\10.2.1\bits\stl_iterator_base_funcs.h ****  * that both that copyright notice and this permission notice appear
  34:c:\program files\daisytoolchain\arm-none-eabi\include\c++\10.2.1\bits\stl_iterator_base_funcs.h ****  * in supporting documentation.  Hewlett-Packard Company makes no
  35:c:\program files\daisytoolchain\arm-none-eabi\include\c++\10.2.1\bits\stl_iterator_base_funcs.h ****  * representations about the suitability of this software for any
  36:c:\program files\daisytoolchain\arm-none-eabi\include\c++\10.2.1\bits\stl_iterator_base_funcs.h ****  * purpose.  It is provided "as is" without express or implied warranty.
  37:c:\program files\daisytoolchain\arm-none-eabi\include\c++\10.2.1\bits\stl_iterator_base_funcs.h ****  *
  38:c:\program files\daisytoolchain\arm-none-eabi\include\c++\10.2.1\bits\stl_iterator_base_funcs.h ****  *
  39:c:\program files\daisytoolchain\arm-none-eabi\include\c++\10.2.1\bits\stl_iterator_base_funcs.h ****  * Copyright (c) 1996-1998
  40:c:\program files\daisytoolchain\arm-none-eabi\include\c++\10.2.1\bits\stl_iterator_base_funcs.h ****  * Silicon Graphics Computer Systems, Inc.
  41:c:\program files\daisytoolchain\arm-none-eabi\include\c++\10.2.1\bits\stl_iterator_base_funcs.h ****  *
  42:c:\program files\daisytoolchain\arm-none-eabi\include\c++\10.2.1\bits\stl_iterator_base_funcs.h ****  * Permission to use, copy, modify, distribute and sell this software
  43:c:\program files\daisytoolchain\arm-none-eabi\include\c++\10.2.1\bits\stl_iterator_base_funcs.h ****  * and its documentation for any purpose is hereby granted without fee,
  44:c:\program files\daisytoolchain\arm-none-eabi\include\c++\10.2.1\bits\stl_iterator_base_funcs.h ****  * provided that the above copyright notice appear in all copies and
  45:c:\program files\daisytoolchain\arm-none-eabi\include\c++\10.2.1\bits\stl_iterator_base_funcs.h ****  * that both that copyright notice and this permission notice appear
  46:c:\program files\daisytoolchain\arm-none-eabi\include\c++\10.2.1\bits\stl_iterator_base_funcs.h ****  * in supporting documentation.  Silicon Graphics makes no
  47:c:\program files\daisytoolchain\arm-none-eabi\include\c++\10.2.1\bits\stl_iterator_base_funcs.h ****  * representations about the suitability of this software for any
  48:c:\program files\daisytoolchain\arm-none-eabi\include\c++\10.2.1\bits\stl_iterator_base_funcs.h ****  * purpose.  It is provided "as is" without express or implied warranty.
  49:c:\program files\daisytoolchain\arm-none-eabi\include\c++\10.2.1\bits\stl_iterator_base_funcs.h ****  */
  50:c:\program files\daisytoolchain\arm-none-eabi\include\c++\10.2.1\bits\stl_iterator_base_funcs.h **** 
  51:c:\program files\daisytoolchain\arm-none-eabi\include\c++\10.2.1\bits\stl_iterator_base_funcs.h **** /** @file bits/stl_iterator_base_funcs.h
  52:c:\program files\daisytoolchain\arm-none-eabi\include\c++\10.2.1\bits\stl_iterator_base_funcs.h ****  *  This is an internal header file, included by other library headers.
  53:c:\program files\daisytoolchain\arm-none-eabi\include\c++\10.2.1\bits\stl_iterator_base_funcs.h ****  *  Do not attempt to use it directly. @headername{iterator}
  54:c:\program files\daisytoolchain\arm-none-eabi\include\c++\10.2.1\bits\stl_iterator_base_funcs.h ****  *
  55:c:\program files\daisytoolchain\arm-none-eabi\include\c++\10.2.1\bits\stl_iterator_base_funcs.h ****  *  This file contains all of the general iterator-related utility
ARM GAS  C:\Users\ryota\AppData\Local\Temp\ccNuOPtY.s 			page 14


  56:c:\program files\daisytoolchain\arm-none-eabi\include\c++\10.2.1\bits\stl_iterator_base_funcs.h ****  *  functions, such as distance() and advance().
  57:c:\program files\daisytoolchain\arm-none-eabi\include\c++\10.2.1\bits\stl_iterator_base_funcs.h ****  */
  58:c:\program files\daisytoolchain\arm-none-eabi\include\c++\10.2.1\bits\stl_iterator_base_funcs.h **** 
  59:c:\program files\daisytoolchain\arm-none-eabi\include\c++\10.2.1\bits\stl_iterator_base_funcs.h **** #ifndef _STL_ITERATOR_BASE_FUNCS_H
  60:c:\program files\daisytoolchain\arm-none-eabi\include\c++\10.2.1\bits\stl_iterator_base_funcs.h **** #define _STL_ITERATOR_BASE_FUNCS_H 1
  61:c:\program files\daisytoolchain\arm-none-eabi\include\c++\10.2.1\bits\stl_iterator_base_funcs.h **** 
  62:c:\program files\daisytoolchain\arm-none-eabi\include\c++\10.2.1\bits\stl_iterator_base_funcs.h **** #pragma GCC system_header
  63:c:\program files\daisytoolchain\arm-none-eabi\include\c++\10.2.1\bits\stl_iterator_base_funcs.h **** 
  64:c:\program files\daisytoolchain\arm-none-eabi\include\c++\10.2.1\bits\stl_iterator_base_funcs.h **** #include <bits/concept_check.h>
  65:c:\program files\daisytoolchain\arm-none-eabi\include\c++\10.2.1\bits\stl_iterator_base_funcs.h **** #include <debug/assertions.h>
  66:c:\program files\daisytoolchain\arm-none-eabi\include\c++\10.2.1\bits\stl_iterator_base_funcs.h **** 
  67:c:\program files\daisytoolchain\arm-none-eabi\include\c++\10.2.1\bits\stl_iterator_base_funcs.h **** namespace std _GLIBCXX_VISIBILITY(default)
  68:c:\program files\daisytoolchain\arm-none-eabi\include\c++\10.2.1\bits\stl_iterator_base_funcs.h **** {
  69:c:\program files\daisytoolchain\arm-none-eabi\include\c++\10.2.1\bits\stl_iterator_base_funcs.h **** _GLIBCXX_BEGIN_NAMESPACE_VERSION
  70:c:\program files\daisytoolchain\arm-none-eabi\include\c++\10.2.1\bits\stl_iterator_base_funcs.h **** 
  71:c:\program files\daisytoolchain\arm-none-eabi\include\c++\10.2.1\bits\stl_iterator_base_funcs.h **** _GLIBCXX_BEGIN_NAMESPACE_CONTAINER
  72:c:\program files\daisytoolchain\arm-none-eabi\include\c++\10.2.1\bits\stl_iterator_base_funcs.h ****   // Forward declaration for the overloads of __distance.
  73:c:\program files\daisytoolchain\arm-none-eabi\include\c++\10.2.1\bits\stl_iterator_base_funcs.h ****   template <typename> struct _List_iterator;
  74:c:\program files\daisytoolchain\arm-none-eabi\include\c++\10.2.1\bits\stl_iterator_base_funcs.h ****   template <typename> struct _List_const_iterator;
  75:c:\program files\daisytoolchain\arm-none-eabi\include\c++\10.2.1\bits\stl_iterator_base_funcs.h **** _GLIBCXX_END_NAMESPACE_CONTAINER
  76:c:\program files\daisytoolchain\arm-none-eabi\include\c++\10.2.1\bits\stl_iterator_base_funcs.h **** 
  77:c:\program files\daisytoolchain\arm-none-eabi\include\c++\10.2.1\bits\stl_iterator_base_funcs.h ****   template<typename _InputIterator>
  78:c:\program files\daisytoolchain\arm-none-eabi\include\c++\10.2.1\bits\stl_iterator_base_funcs.h ****     inline _GLIBCXX14_CONSTEXPR
  79:c:\program files\daisytoolchain\arm-none-eabi\include\c++\10.2.1\bits\stl_iterator_base_funcs.h ****     typename iterator_traits<_InputIterator>::difference_type
  80:c:\program files\daisytoolchain\arm-none-eabi\include\c++\10.2.1\bits\stl_iterator_base_funcs.h ****     __distance(_InputIterator __first, _InputIterator __last,
  81:c:\program files\daisytoolchain\arm-none-eabi\include\c++\10.2.1\bits\stl_iterator_base_funcs.h ****                input_iterator_tag)
  82:c:\program files\daisytoolchain\arm-none-eabi\include\c++\10.2.1\bits\stl_iterator_base_funcs.h ****     {
  83:c:\program files\daisytoolchain\arm-none-eabi\include\c++\10.2.1\bits\stl_iterator_base_funcs.h ****       // concept requirements
  84:c:\program files\daisytoolchain\arm-none-eabi\include\c++\10.2.1\bits\stl_iterator_base_funcs.h ****       __glibcxx_function_requires(_InputIteratorConcept<_InputIterator>)
  85:c:\program files\daisytoolchain\arm-none-eabi\include\c++\10.2.1\bits\stl_iterator_base_funcs.h **** 
  86:c:\program files\daisytoolchain\arm-none-eabi\include\c++\10.2.1\bits\stl_iterator_base_funcs.h ****       typename iterator_traits<_InputIterator>::difference_type __n = 0;
  87:c:\program files\daisytoolchain\arm-none-eabi\include\c++\10.2.1\bits\stl_iterator_base_funcs.h ****       while (__first != __last)
  88:c:\program files\daisytoolchain\arm-none-eabi\include\c++\10.2.1\bits\stl_iterator_base_funcs.h **** 	{
  89:c:\program files\daisytoolchain\arm-none-eabi\include\c++\10.2.1\bits\stl_iterator_base_funcs.h **** 	  ++__first;
  90:c:\program files\daisytoolchain\arm-none-eabi\include\c++\10.2.1\bits\stl_iterator_base_funcs.h **** 	  ++__n;
  91:c:\program files\daisytoolchain\arm-none-eabi\include\c++\10.2.1\bits\stl_iterator_base_funcs.h **** 	}
  92:c:\program files\daisytoolchain\arm-none-eabi\include\c++\10.2.1\bits\stl_iterator_base_funcs.h ****       return __n;
  93:c:\program files\daisytoolchain\arm-none-eabi\include\c++\10.2.1\bits\stl_iterator_base_funcs.h ****     }
  94:c:\program files\daisytoolchain\arm-none-eabi\include\c++\10.2.1\bits\stl_iterator_base_funcs.h **** 
  95:c:\program files\daisytoolchain\arm-none-eabi\include\c++\10.2.1\bits\stl_iterator_base_funcs.h ****   template<typename _RandomAccessIterator>
  96:c:\program files\daisytoolchain\arm-none-eabi\include\c++\10.2.1\bits\stl_iterator_base_funcs.h ****     inline _GLIBCXX14_CONSTEXPR
  97:c:\program files\daisytoolchain\arm-none-eabi\include\c++\10.2.1\bits\stl_iterator_base_funcs.h ****     typename iterator_traits<_RandomAccessIterator>::difference_type
  98:c:\program files\daisytoolchain\arm-none-eabi\include\c++\10.2.1\bits\stl_iterator_base_funcs.h ****     __distance(_RandomAccessIterator __first, _RandomAccessIterator __last,
  99:c:\program files\daisytoolchain\arm-none-eabi\include\c++\10.2.1\bits\stl_iterator_base_funcs.h ****                random_access_iterator_tag)
 100:c:\program files\daisytoolchain\arm-none-eabi\include\c++\10.2.1\bits\stl_iterator_base_funcs.h ****     {
 101:c:\program files\daisytoolchain\arm-none-eabi\include\c++\10.2.1\bits\stl_iterator_base_funcs.h ****       // concept requirements
 102:c:\program files\daisytoolchain\arm-none-eabi\include\c++\10.2.1\bits\stl_iterator_base_funcs.h ****       __glibcxx_function_requires(_RandomAccessIteratorConcept<
 103:c:\program files\daisytoolchain\arm-none-eabi\include\c++\10.2.1\bits\stl_iterator_base_funcs.h **** 				  _RandomAccessIterator>)
 104:c:\program files\daisytoolchain\arm-none-eabi\include\c++\10.2.1\bits\stl_iterator_base_funcs.h ****       return __last - __first;
 105:c:\program files\daisytoolchain\arm-none-eabi\include\c++\10.2.1\bits\stl_iterator_base_funcs.h ****     }
 106:c:\program files\daisytoolchain\arm-none-eabi\include\c++\10.2.1\bits\stl_iterator_base_funcs.h **** 
 107:c:\program files\daisytoolchain\arm-none-eabi\include\c++\10.2.1\bits\stl_iterator_base_funcs.h **** #if _GLIBCXX_USE_CXX11_ABI
 108:c:\program files\daisytoolchain\arm-none-eabi\include\c++\10.2.1\bits\stl_iterator_base_funcs.h ****   // Forward declaration because of the qualified call in distance.
 109:c:\program files\daisytoolchain\arm-none-eabi\include\c++\10.2.1\bits\stl_iterator_base_funcs.h ****   template<typename _Tp>
 110:c:\program files\daisytoolchain\arm-none-eabi\include\c++\10.2.1\bits\stl_iterator_base_funcs.h ****     ptrdiff_t
 111:c:\program files\daisytoolchain\arm-none-eabi\include\c++\10.2.1\bits\stl_iterator_base_funcs.h ****     __distance(_GLIBCXX_STD_C::_List_iterator<_Tp>,
 112:c:\program files\daisytoolchain\arm-none-eabi\include\c++\10.2.1\bits\stl_iterator_base_funcs.h **** 	       _GLIBCXX_STD_C::_List_iterator<_Tp>,
ARM GAS  C:\Users\ryota\AppData\Local\Temp\ccNuOPtY.s 			page 15


 113:c:\program files\daisytoolchain\arm-none-eabi\include\c++\10.2.1\bits\stl_iterator_base_funcs.h **** 	       input_iterator_tag);
 114:c:\program files\daisytoolchain\arm-none-eabi\include\c++\10.2.1\bits\stl_iterator_base_funcs.h **** 
 115:c:\program files\daisytoolchain\arm-none-eabi\include\c++\10.2.1\bits\stl_iterator_base_funcs.h ****   template<typename _Tp>
 116:c:\program files\daisytoolchain\arm-none-eabi\include\c++\10.2.1\bits\stl_iterator_base_funcs.h ****     ptrdiff_t
 117:c:\program files\daisytoolchain\arm-none-eabi\include\c++\10.2.1\bits\stl_iterator_base_funcs.h ****     __distance(_GLIBCXX_STD_C::_List_const_iterator<_Tp>,
 118:c:\program files\daisytoolchain\arm-none-eabi\include\c++\10.2.1\bits\stl_iterator_base_funcs.h **** 	       _GLIBCXX_STD_C::_List_const_iterator<_Tp>,
 119:c:\program files\daisytoolchain\arm-none-eabi\include\c++\10.2.1\bits\stl_iterator_base_funcs.h **** 	       input_iterator_tag);
 120:c:\program files\daisytoolchain\arm-none-eabi\include\c++\10.2.1\bits\stl_iterator_base_funcs.h **** #endif
 121:c:\program files\daisytoolchain\arm-none-eabi\include\c++\10.2.1\bits\stl_iterator_base_funcs.h **** 
 122:c:\program files\daisytoolchain\arm-none-eabi\include\c++\10.2.1\bits\stl_iterator_base_funcs.h ****   /**
 123:c:\program files\daisytoolchain\arm-none-eabi\include\c++\10.2.1\bits\stl_iterator_base_funcs.h ****    *  @brief A generalization of pointer arithmetic.
 124:c:\program files\daisytoolchain\arm-none-eabi\include\c++\10.2.1\bits\stl_iterator_base_funcs.h ****    *  @param  __first  An input iterator.
 125:c:\program files\daisytoolchain\arm-none-eabi\include\c++\10.2.1\bits\stl_iterator_base_funcs.h ****    *  @param  __last  An input iterator.
 126:c:\program files\daisytoolchain\arm-none-eabi\include\c++\10.2.1\bits\stl_iterator_base_funcs.h ****    *  @return  The distance between them.
 127:c:\program files\daisytoolchain\arm-none-eabi\include\c++\10.2.1\bits\stl_iterator_base_funcs.h ****    *
 128:c:\program files\daisytoolchain\arm-none-eabi\include\c++\10.2.1\bits\stl_iterator_base_funcs.h ****    *  Returns @c n such that __first + n == __last.  This requires
 129:c:\program files\daisytoolchain\arm-none-eabi\include\c++\10.2.1\bits\stl_iterator_base_funcs.h ****    *  that @p __last must be reachable from @p __first.  Note that @c
 130:c:\program files\daisytoolchain\arm-none-eabi\include\c++\10.2.1\bits\stl_iterator_base_funcs.h ****    *  n may be negative.
 131:c:\program files\daisytoolchain\arm-none-eabi\include\c++\10.2.1\bits\stl_iterator_base_funcs.h ****    *
 132:c:\program files\daisytoolchain\arm-none-eabi\include\c++\10.2.1\bits\stl_iterator_base_funcs.h ****    *  For random access iterators, this uses their @c + and @c - operations
 133:c:\program files\daisytoolchain\arm-none-eabi\include\c++\10.2.1\bits\stl_iterator_base_funcs.h ****    *  and are constant time.  For other %iterator classes they are linear time.
 134:c:\program files\daisytoolchain\arm-none-eabi\include\c++\10.2.1\bits\stl_iterator_base_funcs.h ****   */
 135:c:\program files\daisytoolchain\arm-none-eabi\include\c++\10.2.1\bits\stl_iterator_base_funcs.h ****   template<typename _InputIterator>
 136:c:\program files\daisytoolchain\arm-none-eabi\include\c++\10.2.1\bits\stl_iterator_base_funcs.h ****     inline _GLIBCXX17_CONSTEXPR
 137:c:\program files\daisytoolchain\arm-none-eabi\include\c++\10.2.1\bits\stl_iterator_base_funcs.h ****     typename iterator_traits<_InputIterator>::difference_type
 138:c:\program files\daisytoolchain\arm-none-eabi\include\c++\10.2.1\bits\stl_iterator_base_funcs.h ****     distance(_InputIterator __first, _InputIterator __last)
 198              		.loc 4 138 5 is_stmt 1 view .LVU39
 199              	.LBB530:
 200              	.LBI530:
  98:c:\program files\daisytoolchain\arm-none-eabi\include\c++\10.2.1\bits\stl_iterator_base_funcs.h ****                random_access_iterator_tag)
 201              		.loc 4 98 5 view .LVU40
 202              	.LBB531:
 104:c:\program files\daisytoolchain\arm-none-eabi\include\c++\10.2.1\bits\stl_iterator_base_funcs.h ****     }
 203              		.loc 4 104 23 is_stmt 0 view .LVU41
 204 000c 941B     		subs	r4, r2, r6
 205              	.LBE531:
 206              	.LBE530:
 207              	.LBE529:
 212:c:\program files\daisytoolchain\arm-none-eabi\include\c++\10.2.1\bits\basic_string.tcc **** 	  std::__throw_logic_error(__N("basic_string::"
 213:c:\program files\daisytoolchain\arm-none-eabi\include\c++\10.2.1\bits\basic_string.tcc **** 				       "_M_construct null not valid"));
 214:c:\program files\daisytoolchain\arm-none-eabi\include\c++\10.2.1\bits\basic_string.tcc **** 
 215:c:\program files\daisytoolchain\arm-none-eabi\include\c++\10.2.1\bits\basic_string.tcc **** 	size_type __dnew = static_cast<size_type>(std::distance(__beg, __end));
 216:c:\program files\daisytoolchain\arm-none-eabi\include\c++\10.2.1\bits\basic_string.tcc **** 
 217:c:\program files\daisytoolchain\arm-none-eabi\include\c++\10.2.1\bits\basic_string.tcc **** 	if (__dnew > size_type(_S_local_capacity))
 208              		.loc 3 217 2 view .LVU42
 209 000e 0F2C     		cmp	r4, #15
 215:c:\program files\daisytoolchain\arm-none-eabi\include\c++\10.2.1\bits\basic_string.tcc **** 
 210              		.loc 3 215 12 view .LVU43
 211 0010 0194     		str	r4, [sp, #4]
 212              		.loc 3 217 2 view .LVU44
 213 0012 11D8     		bhi	.L47
 214              	.LVL12:
 215              	.LBB532:
 216              	.LBI532:
 217              		.file 5 "c:\\program files\\daisytoolchain\\arm-none-eabi\\include\\c++\\10.2.1\\bits\\basic_strin
   1:c:\program files\daisytoolchain\arm-none-eabi\include\c++\10.2.1\bits\basic_string.h **** // Components for manipulating sequences of characters -*- C++ -*-
   2:c:\program files\daisytoolchain\arm-none-eabi\include\c++\10.2.1\bits\basic_string.h **** 
ARM GAS  C:\Users\ryota\AppData\Local\Temp\ccNuOPtY.s 			page 16


   3:c:\program files\daisytoolchain\arm-none-eabi\include\c++\10.2.1\bits\basic_string.h **** // Copyright (C) 1997-2020 Free Software Foundation, Inc.
   4:c:\program files\daisytoolchain\arm-none-eabi\include\c++\10.2.1\bits\basic_string.h **** //
   5:c:\program files\daisytoolchain\arm-none-eabi\include\c++\10.2.1\bits\basic_string.h **** // This file is part of the GNU ISO C++ Library.  This library is free
   6:c:\program files\daisytoolchain\arm-none-eabi\include\c++\10.2.1\bits\basic_string.h **** // software; you can redistribute it and/or modify it under the
   7:c:\program files\daisytoolchain\arm-none-eabi\include\c++\10.2.1\bits\basic_string.h **** // terms of the GNU General Public License as published by the
   8:c:\program files\daisytoolchain\arm-none-eabi\include\c++\10.2.1\bits\basic_string.h **** // Free Software Foundation; either version 3, or (at your option)
   9:c:\program files\daisytoolchain\arm-none-eabi\include\c++\10.2.1\bits\basic_string.h **** // any later version.
  10:c:\program files\daisytoolchain\arm-none-eabi\include\c++\10.2.1\bits\basic_string.h **** 
  11:c:\program files\daisytoolchain\arm-none-eabi\include\c++\10.2.1\bits\basic_string.h **** // This library is distributed in the hope that it will be useful,
  12:c:\program files\daisytoolchain\arm-none-eabi\include\c++\10.2.1\bits\basic_string.h **** // but WITHOUT ANY WARRANTY; without even the implied warranty of
  13:c:\program files\daisytoolchain\arm-none-eabi\include\c++\10.2.1\bits\basic_string.h **** // MERCHANTABILITY or FITNESS FOR A PARTICULAR PURPOSE.  See the
  14:c:\program files\daisytoolchain\arm-none-eabi\include\c++\10.2.1\bits\basic_string.h **** // GNU General Public License for more details.
  15:c:\program files\daisytoolchain\arm-none-eabi\include\c++\10.2.1\bits\basic_string.h **** 
  16:c:\program files\daisytoolchain\arm-none-eabi\include\c++\10.2.1\bits\basic_string.h **** // Under Section 7 of GPL version 3, you are granted additional
  17:c:\program files\daisytoolchain\arm-none-eabi\include\c++\10.2.1\bits\basic_string.h **** // permissions described in the GCC Runtime Library Exception, version
  18:c:\program files\daisytoolchain\arm-none-eabi\include\c++\10.2.1\bits\basic_string.h **** // 3.1, as published by the Free Software Foundation.
  19:c:\program files\daisytoolchain\arm-none-eabi\include\c++\10.2.1\bits\basic_string.h **** 
  20:c:\program files\daisytoolchain\arm-none-eabi\include\c++\10.2.1\bits\basic_string.h **** // You should have received a copy of the GNU General Public License and
  21:c:\program files\daisytoolchain\arm-none-eabi\include\c++\10.2.1\bits\basic_string.h **** // a copy of the GCC Runtime Library Exception along with this program;
  22:c:\program files\daisytoolchain\arm-none-eabi\include\c++\10.2.1\bits\basic_string.h **** // see the files COPYING3 and COPYING.RUNTIME respectively.  If not, see
  23:c:\program files\daisytoolchain\arm-none-eabi\include\c++\10.2.1\bits\basic_string.h **** // <http://www.gnu.org/licenses/>.
  24:c:\program files\daisytoolchain\arm-none-eabi\include\c++\10.2.1\bits\basic_string.h **** 
  25:c:\program files\daisytoolchain\arm-none-eabi\include\c++\10.2.1\bits\basic_string.h **** /** @file bits/basic_string.h
  26:c:\program files\daisytoolchain\arm-none-eabi\include\c++\10.2.1\bits\basic_string.h ****  *  This is an internal header file, included by other library headers.
  27:c:\program files\daisytoolchain\arm-none-eabi\include\c++\10.2.1\bits\basic_string.h ****  *  Do not attempt to use it directly. @headername{string}
  28:c:\program files\daisytoolchain\arm-none-eabi\include\c++\10.2.1\bits\basic_string.h ****  */
  29:c:\program files\daisytoolchain\arm-none-eabi\include\c++\10.2.1\bits\basic_string.h **** 
  30:c:\program files\daisytoolchain\arm-none-eabi\include\c++\10.2.1\bits\basic_string.h **** //
  31:c:\program files\daisytoolchain\arm-none-eabi\include\c++\10.2.1\bits\basic_string.h **** // ISO C++ 14882: 21 Strings library
  32:c:\program files\daisytoolchain\arm-none-eabi\include\c++\10.2.1\bits\basic_string.h **** //
  33:c:\program files\daisytoolchain\arm-none-eabi\include\c++\10.2.1\bits\basic_string.h **** 
  34:c:\program files\daisytoolchain\arm-none-eabi\include\c++\10.2.1\bits\basic_string.h **** #ifndef _BASIC_STRING_H
  35:c:\program files\daisytoolchain\arm-none-eabi\include\c++\10.2.1\bits\basic_string.h **** #define _BASIC_STRING_H 1
  36:c:\program files\daisytoolchain\arm-none-eabi\include\c++\10.2.1\bits\basic_string.h **** 
  37:c:\program files\daisytoolchain\arm-none-eabi\include\c++\10.2.1\bits\basic_string.h **** #pragma GCC system_header
  38:c:\program files\daisytoolchain\arm-none-eabi\include\c++\10.2.1\bits\basic_string.h **** 
  39:c:\program files\daisytoolchain\arm-none-eabi\include\c++\10.2.1\bits\basic_string.h **** #include <ext/atomicity.h>
  40:c:\program files\daisytoolchain\arm-none-eabi\include\c++\10.2.1\bits\basic_string.h **** #include <ext/alloc_traits.h>
  41:c:\program files\daisytoolchain\arm-none-eabi\include\c++\10.2.1\bits\basic_string.h **** #include <debug/debug.h>
  42:c:\program files\daisytoolchain\arm-none-eabi\include\c++\10.2.1\bits\basic_string.h **** 
  43:c:\program files\daisytoolchain\arm-none-eabi\include\c++\10.2.1\bits\basic_string.h **** #if __cplusplus >= 201103L
  44:c:\program files\daisytoolchain\arm-none-eabi\include\c++\10.2.1\bits\basic_string.h **** #include <initializer_list>
  45:c:\program files\daisytoolchain\arm-none-eabi\include\c++\10.2.1\bits\basic_string.h **** #endif
  46:c:\program files\daisytoolchain\arm-none-eabi\include\c++\10.2.1\bits\basic_string.h **** 
  47:c:\program files\daisytoolchain\arm-none-eabi\include\c++\10.2.1\bits\basic_string.h **** #if __cplusplus >= 201703L
  48:c:\program files\daisytoolchain\arm-none-eabi\include\c++\10.2.1\bits\basic_string.h **** # include <string_view>
  49:c:\program files\daisytoolchain\arm-none-eabi\include\c++\10.2.1\bits\basic_string.h **** #endif
  50:c:\program files\daisytoolchain\arm-none-eabi\include\c++\10.2.1\bits\basic_string.h **** 
  51:c:\program files\daisytoolchain\arm-none-eabi\include\c++\10.2.1\bits\basic_string.h **** 
  52:c:\program files\daisytoolchain\arm-none-eabi\include\c++\10.2.1\bits\basic_string.h **** namespace std _GLIBCXX_VISIBILITY(default)
  53:c:\program files\daisytoolchain\arm-none-eabi\include\c++\10.2.1\bits\basic_string.h **** {
  54:c:\program files\daisytoolchain\arm-none-eabi\include\c++\10.2.1\bits\basic_string.h **** _GLIBCXX_BEGIN_NAMESPACE_VERSION
  55:c:\program files\daisytoolchain\arm-none-eabi\include\c++\10.2.1\bits\basic_string.h **** 
  56:c:\program files\daisytoolchain\arm-none-eabi\include\c++\10.2.1\bits\basic_string.h **** #if _GLIBCXX_USE_CXX11_ABI
  57:c:\program files\daisytoolchain\arm-none-eabi\include\c++\10.2.1\bits\basic_string.h **** _GLIBCXX_BEGIN_NAMESPACE_CXX11
  58:c:\program files\daisytoolchain\arm-none-eabi\include\c++\10.2.1\bits\basic_string.h ****   /**
  59:c:\program files\daisytoolchain\arm-none-eabi\include\c++\10.2.1\bits\basic_string.h ****    *  @class basic_string basic_string.h <string>
ARM GAS  C:\Users\ryota\AppData\Local\Temp\ccNuOPtY.s 			page 17


  60:c:\program files\daisytoolchain\arm-none-eabi\include\c++\10.2.1\bits\basic_string.h ****    *  @brief  Managing sequences of characters and character-like objects.
  61:c:\program files\daisytoolchain\arm-none-eabi\include\c++\10.2.1\bits\basic_string.h ****    *
  62:c:\program files\daisytoolchain\arm-none-eabi\include\c++\10.2.1\bits\basic_string.h ****    *  @ingroup strings
  63:c:\program files\daisytoolchain\arm-none-eabi\include\c++\10.2.1\bits\basic_string.h ****    *  @ingroup sequences
  64:c:\program files\daisytoolchain\arm-none-eabi\include\c++\10.2.1\bits\basic_string.h ****    *
  65:c:\program files\daisytoolchain\arm-none-eabi\include\c++\10.2.1\bits\basic_string.h ****    *  @tparam _CharT  Type of character
  66:c:\program files\daisytoolchain\arm-none-eabi\include\c++\10.2.1\bits\basic_string.h ****    *  @tparam _Traits  Traits for character type, defaults to
  67:c:\program files\daisytoolchain\arm-none-eabi\include\c++\10.2.1\bits\basic_string.h ****    *                   char_traits<_CharT>.
  68:c:\program files\daisytoolchain\arm-none-eabi\include\c++\10.2.1\bits\basic_string.h ****    *  @tparam _Alloc  Allocator type, defaults to allocator<_CharT>.
  69:c:\program files\daisytoolchain\arm-none-eabi\include\c++\10.2.1\bits\basic_string.h ****    *
  70:c:\program files\daisytoolchain\arm-none-eabi\include\c++\10.2.1\bits\basic_string.h ****    *  Meets the requirements of a <a href="tables.html#65">container</a>, a
  71:c:\program files\daisytoolchain\arm-none-eabi\include\c++\10.2.1\bits\basic_string.h ****    *  <a href="tables.html#66">reversible container</a>, and a
  72:c:\program files\daisytoolchain\arm-none-eabi\include\c++\10.2.1\bits\basic_string.h ****    *  <a href="tables.html#67">sequence</a>.  Of the
  73:c:\program files\daisytoolchain\arm-none-eabi\include\c++\10.2.1\bits\basic_string.h ****    *  <a href="tables.html#68">optional sequence requirements</a>, only
  74:c:\program files\daisytoolchain\arm-none-eabi\include\c++\10.2.1\bits\basic_string.h ****    *  @c push_back, @c at, and @c %array access are supported.
  75:c:\program files\daisytoolchain\arm-none-eabi\include\c++\10.2.1\bits\basic_string.h ****    */
  76:c:\program files\daisytoolchain\arm-none-eabi\include\c++\10.2.1\bits\basic_string.h ****   template<typename _CharT, typename _Traits, typename _Alloc>
  77:c:\program files\daisytoolchain\arm-none-eabi\include\c++\10.2.1\bits\basic_string.h ****     class basic_string
  78:c:\program files\daisytoolchain\arm-none-eabi\include\c++\10.2.1\bits\basic_string.h ****     {
  79:c:\program files\daisytoolchain\arm-none-eabi\include\c++\10.2.1\bits\basic_string.h ****       typedef typename __gnu_cxx::__alloc_traits<_Alloc>::template
  80:c:\program files\daisytoolchain\arm-none-eabi\include\c++\10.2.1\bits\basic_string.h **** 	rebind<_CharT>::other _Char_alloc_type;
  81:c:\program files\daisytoolchain\arm-none-eabi\include\c++\10.2.1\bits\basic_string.h ****       typedef __gnu_cxx::__alloc_traits<_Char_alloc_type> _Alloc_traits;
  82:c:\program files\daisytoolchain\arm-none-eabi\include\c++\10.2.1\bits\basic_string.h **** 
  83:c:\program files\daisytoolchain\arm-none-eabi\include\c++\10.2.1\bits\basic_string.h ****       // Types:
  84:c:\program files\daisytoolchain\arm-none-eabi\include\c++\10.2.1\bits\basic_string.h ****     public:
  85:c:\program files\daisytoolchain\arm-none-eabi\include\c++\10.2.1\bits\basic_string.h ****       typedef _Traits					traits_type;
  86:c:\program files\daisytoolchain\arm-none-eabi\include\c++\10.2.1\bits\basic_string.h ****       typedef typename _Traits::char_type		value_type;
  87:c:\program files\daisytoolchain\arm-none-eabi\include\c++\10.2.1\bits\basic_string.h ****       typedef _Char_alloc_type				allocator_type;
  88:c:\program files\daisytoolchain\arm-none-eabi\include\c++\10.2.1\bits\basic_string.h ****       typedef typename _Alloc_traits::size_type		size_type;
  89:c:\program files\daisytoolchain\arm-none-eabi\include\c++\10.2.1\bits\basic_string.h ****       typedef typename _Alloc_traits::difference_type	difference_type;
  90:c:\program files\daisytoolchain\arm-none-eabi\include\c++\10.2.1\bits\basic_string.h ****       typedef typename _Alloc_traits::reference		reference;
  91:c:\program files\daisytoolchain\arm-none-eabi\include\c++\10.2.1\bits\basic_string.h ****       typedef typename _Alloc_traits::const_reference	const_reference;
  92:c:\program files\daisytoolchain\arm-none-eabi\include\c++\10.2.1\bits\basic_string.h ****       typedef typename _Alloc_traits::pointer		pointer;
  93:c:\program files\daisytoolchain\arm-none-eabi\include\c++\10.2.1\bits\basic_string.h ****       typedef typename _Alloc_traits::const_pointer	const_pointer;
  94:c:\program files\daisytoolchain\arm-none-eabi\include\c++\10.2.1\bits\basic_string.h ****       typedef __gnu_cxx::__normal_iterator<pointer, basic_string>  iterator;
  95:c:\program files\daisytoolchain\arm-none-eabi\include\c++\10.2.1\bits\basic_string.h ****       typedef __gnu_cxx::__normal_iterator<const_pointer, basic_string>
  96:c:\program files\daisytoolchain\arm-none-eabi\include\c++\10.2.1\bits\basic_string.h **** 							const_iterator;
  97:c:\program files\daisytoolchain\arm-none-eabi\include\c++\10.2.1\bits\basic_string.h ****       typedef std::reverse_iterator<const_iterator>	const_reverse_iterator;
  98:c:\program files\daisytoolchain\arm-none-eabi\include\c++\10.2.1\bits\basic_string.h ****       typedef std::reverse_iterator<iterator>		reverse_iterator;
  99:c:\program files\daisytoolchain\arm-none-eabi\include\c++\10.2.1\bits\basic_string.h **** 
 100:c:\program files\daisytoolchain\arm-none-eabi\include\c++\10.2.1\bits\basic_string.h ****       ///  Value returned by various member functions when they fail.
 101:c:\program files\daisytoolchain\arm-none-eabi\include\c++\10.2.1\bits\basic_string.h ****       static const size_type	npos = static_cast<size_type>(-1);
 102:c:\program files\daisytoolchain\arm-none-eabi\include\c++\10.2.1\bits\basic_string.h **** 
 103:c:\program files\daisytoolchain\arm-none-eabi\include\c++\10.2.1\bits\basic_string.h ****     protected:
 104:c:\program files\daisytoolchain\arm-none-eabi\include\c++\10.2.1\bits\basic_string.h ****       // type used for positions in insert, erase etc.
 105:c:\program files\daisytoolchain\arm-none-eabi\include\c++\10.2.1\bits\basic_string.h **** #if __cplusplus < 201103L
 106:c:\program files\daisytoolchain\arm-none-eabi\include\c++\10.2.1\bits\basic_string.h ****       typedef iterator __const_iterator;
 107:c:\program files\daisytoolchain\arm-none-eabi\include\c++\10.2.1\bits\basic_string.h **** #else
 108:c:\program files\daisytoolchain\arm-none-eabi\include\c++\10.2.1\bits\basic_string.h ****       typedef const_iterator __const_iterator;
 109:c:\program files\daisytoolchain\arm-none-eabi\include\c++\10.2.1\bits\basic_string.h **** #endif
 110:c:\program files\daisytoolchain\arm-none-eabi\include\c++\10.2.1\bits\basic_string.h **** 
 111:c:\program files\daisytoolchain\arm-none-eabi\include\c++\10.2.1\bits\basic_string.h ****     private:
 112:c:\program files\daisytoolchain\arm-none-eabi\include\c++\10.2.1\bits\basic_string.h **** #if __cplusplus >= 201703L
 113:c:\program files\daisytoolchain\arm-none-eabi\include\c++\10.2.1\bits\basic_string.h ****       // A helper type for avoiding boiler-plate.
 114:c:\program files\daisytoolchain\arm-none-eabi\include\c++\10.2.1\bits\basic_string.h ****       typedef basic_string_view<_CharT, _Traits> __sv_type;
 115:c:\program files\daisytoolchain\arm-none-eabi\include\c++\10.2.1\bits\basic_string.h **** 
 116:c:\program files\daisytoolchain\arm-none-eabi\include\c++\10.2.1\bits\basic_string.h ****       template<typename _Tp, typename _Res>
ARM GAS  C:\Users\ryota\AppData\Local\Temp\ccNuOPtY.s 			page 18


 117:c:\program files\daisytoolchain\arm-none-eabi\include\c++\10.2.1\bits\basic_string.h **** 	using _If_sv = enable_if_t<
 118:c:\program files\daisytoolchain\arm-none-eabi\include\c++\10.2.1\bits\basic_string.h **** 	  __and_<is_convertible<const _Tp&, __sv_type>,
 119:c:\program files\daisytoolchain\arm-none-eabi\include\c++\10.2.1\bits\basic_string.h **** 		 __not_<is_convertible<const _Tp*, const basic_string*>>,
 120:c:\program files\daisytoolchain\arm-none-eabi\include\c++\10.2.1\bits\basic_string.h **** 		 __not_<is_convertible<const _Tp&, const _CharT*>>>::value,
 121:c:\program files\daisytoolchain\arm-none-eabi\include\c++\10.2.1\bits\basic_string.h **** 	  _Res>;
 122:c:\program files\daisytoolchain\arm-none-eabi\include\c++\10.2.1\bits\basic_string.h **** 
 123:c:\program files\daisytoolchain\arm-none-eabi\include\c++\10.2.1\bits\basic_string.h ****       // Allows an implicit conversion to __sv_type.
 124:c:\program files\daisytoolchain\arm-none-eabi\include\c++\10.2.1\bits\basic_string.h ****       static __sv_type
 125:c:\program files\daisytoolchain\arm-none-eabi\include\c++\10.2.1\bits\basic_string.h ****       _S_to_string_view(__sv_type __svt) noexcept
 126:c:\program files\daisytoolchain\arm-none-eabi\include\c++\10.2.1\bits\basic_string.h ****       { return __svt; }
 127:c:\program files\daisytoolchain\arm-none-eabi\include\c++\10.2.1\bits\basic_string.h **** 
 128:c:\program files\daisytoolchain\arm-none-eabi\include\c++\10.2.1\bits\basic_string.h ****       // Wraps a string_view by explicit conversion and thus
 129:c:\program files\daisytoolchain\arm-none-eabi\include\c++\10.2.1\bits\basic_string.h ****       // allows to add an internal constructor that does not
 130:c:\program files\daisytoolchain\arm-none-eabi\include\c++\10.2.1\bits\basic_string.h ****       // participate in overload resolution when a string_view
 131:c:\program files\daisytoolchain\arm-none-eabi\include\c++\10.2.1\bits\basic_string.h ****       // is provided.
 132:c:\program files\daisytoolchain\arm-none-eabi\include\c++\10.2.1\bits\basic_string.h ****       struct __sv_wrapper
 133:c:\program files\daisytoolchain\arm-none-eabi\include\c++\10.2.1\bits\basic_string.h ****       {
 134:c:\program files\daisytoolchain\arm-none-eabi\include\c++\10.2.1\bits\basic_string.h **** 	explicit __sv_wrapper(__sv_type __sv) noexcept : _M_sv(__sv) { }
 135:c:\program files\daisytoolchain\arm-none-eabi\include\c++\10.2.1\bits\basic_string.h **** 	__sv_type _M_sv;
 136:c:\program files\daisytoolchain\arm-none-eabi\include\c++\10.2.1\bits\basic_string.h ****       };
 137:c:\program files\daisytoolchain\arm-none-eabi\include\c++\10.2.1\bits\basic_string.h **** 
 138:c:\program files\daisytoolchain\arm-none-eabi\include\c++\10.2.1\bits\basic_string.h ****       /**
 139:c:\program files\daisytoolchain\arm-none-eabi\include\c++\10.2.1\bits\basic_string.h ****        *  @brief  Only internally used: Construct string from a string view
 140:c:\program files\daisytoolchain\arm-none-eabi\include\c++\10.2.1\bits\basic_string.h ****        *          wrapper.
 141:c:\program files\daisytoolchain\arm-none-eabi\include\c++\10.2.1\bits\basic_string.h ****        *  @param  __svw  string view wrapper.
 142:c:\program files\daisytoolchain\arm-none-eabi\include\c++\10.2.1\bits\basic_string.h ****        *  @param  __a  Allocator to use.
 143:c:\program files\daisytoolchain\arm-none-eabi\include\c++\10.2.1\bits\basic_string.h ****        */
 144:c:\program files\daisytoolchain\arm-none-eabi\include\c++\10.2.1\bits\basic_string.h ****       explicit
 145:c:\program files\daisytoolchain\arm-none-eabi\include\c++\10.2.1\bits\basic_string.h ****       basic_string(__sv_wrapper __svw, const _Alloc& __a)
 146:c:\program files\daisytoolchain\arm-none-eabi\include\c++\10.2.1\bits\basic_string.h ****       : basic_string(__svw._M_sv.data(), __svw._M_sv.size(), __a) { }
 147:c:\program files\daisytoolchain\arm-none-eabi\include\c++\10.2.1\bits\basic_string.h **** #endif
 148:c:\program files\daisytoolchain\arm-none-eabi\include\c++\10.2.1\bits\basic_string.h **** 
 149:c:\program files\daisytoolchain\arm-none-eabi\include\c++\10.2.1\bits\basic_string.h ****       // Use empty-base optimization: http://www.cantrip.org/emptyopt.html
 150:c:\program files\daisytoolchain\arm-none-eabi\include\c++\10.2.1\bits\basic_string.h ****       struct _Alloc_hider : allocator_type // TODO check __is_final
 151:c:\program files\daisytoolchain\arm-none-eabi\include\c++\10.2.1\bits\basic_string.h ****       {
 152:c:\program files\daisytoolchain\arm-none-eabi\include\c++\10.2.1\bits\basic_string.h **** #if __cplusplus < 201103L
 153:c:\program files\daisytoolchain\arm-none-eabi\include\c++\10.2.1\bits\basic_string.h **** 	_Alloc_hider(pointer __dat, const _Alloc& __a = _Alloc())
 154:c:\program files\daisytoolchain\arm-none-eabi\include\c++\10.2.1\bits\basic_string.h **** 	: allocator_type(__a), _M_p(__dat) { }
 155:c:\program files\daisytoolchain\arm-none-eabi\include\c++\10.2.1\bits\basic_string.h **** #else
 156:c:\program files\daisytoolchain\arm-none-eabi\include\c++\10.2.1\bits\basic_string.h **** 	_Alloc_hider(pointer __dat, const _Alloc& __a)
 157:c:\program files\daisytoolchain\arm-none-eabi\include\c++\10.2.1\bits\basic_string.h **** 	: allocator_type(__a), _M_p(__dat) { }
 158:c:\program files\daisytoolchain\arm-none-eabi\include\c++\10.2.1\bits\basic_string.h **** 
 159:c:\program files\daisytoolchain\arm-none-eabi\include\c++\10.2.1\bits\basic_string.h **** 	_Alloc_hider(pointer __dat, _Alloc&& __a = _Alloc())
 160:c:\program files\daisytoolchain\arm-none-eabi\include\c++\10.2.1\bits\basic_string.h **** 	: allocator_type(std::move(__a)), _M_p(__dat) { }
 161:c:\program files\daisytoolchain\arm-none-eabi\include\c++\10.2.1\bits\basic_string.h **** #endif
 162:c:\program files\daisytoolchain\arm-none-eabi\include\c++\10.2.1\bits\basic_string.h **** 
 163:c:\program files\daisytoolchain\arm-none-eabi\include\c++\10.2.1\bits\basic_string.h **** 	pointer _M_p; // The actual data.
 164:c:\program files\daisytoolchain\arm-none-eabi\include\c++\10.2.1\bits\basic_string.h ****       };
 165:c:\program files\daisytoolchain\arm-none-eabi\include\c++\10.2.1\bits\basic_string.h **** 
 166:c:\program files\daisytoolchain\arm-none-eabi\include\c++\10.2.1\bits\basic_string.h ****       _Alloc_hider	_M_dataplus;
 167:c:\program files\daisytoolchain\arm-none-eabi\include\c++\10.2.1\bits\basic_string.h ****       size_type		_M_string_length;
 168:c:\program files\daisytoolchain\arm-none-eabi\include\c++\10.2.1\bits\basic_string.h **** 
 169:c:\program files\daisytoolchain\arm-none-eabi\include\c++\10.2.1\bits\basic_string.h ****       enum { _S_local_capacity = 15 / sizeof(_CharT) };
 170:c:\program files\daisytoolchain\arm-none-eabi\include\c++\10.2.1\bits\basic_string.h **** 
 171:c:\program files\daisytoolchain\arm-none-eabi\include\c++\10.2.1\bits\basic_string.h ****       union
 172:c:\program files\daisytoolchain\arm-none-eabi\include\c++\10.2.1\bits\basic_string.h ****       {
 173:c:\program files\daisytoolchain\arm-none-eabi\include\c++\10.2.1\bits\basic_string.h **** 	_CharT           _M_local_buf[_S_local_capacity + 1];
ARM GAS  C:\Users\ryota\AppData\Local\Temp\ccNuOPtY.s 			page 19


 174:c:\program files\daisytoolchain\arm-none-eabi\include\c++\10.2.1\bits\basic_string.h **** 	size_type        _M_allocated_capacity;
 175:c:\program files\daisytoolchain\arm-none-eabi\include\c++\10.2.1\bits\basic_string.h ****       };
 176:c:\program files\daisytoolchain\arm-none-eabi\include\c++\10.2.1\bits\basic_string.h **** 
 177:c:\program files\daisytoolchain\arm-none-eabi\include\c++\10.2.1\bits\basic_string.h ****       void
 178:c:\program files\daisytoolchain\arm-none-eabi\include\c++\10.2.1\bits\basic_string.h ****       _M_data(pointer __p)
 179:c:\program files\daisytoolchain\arm-none-eabi\include\c++\10.2.1\bits\basic_string.h ****       { _M_dataplus._M_p = __p; }
 180:c:\program files\daisytoolchain\arm-none-eabi\include\c++\10.2.1\bits\basic_string.h **** 
 181:c:\program files\daisytoolchain\arm-none-eabi\include\c++\10.2.1\bits\basic_string.h ****       void
 182:c:\program files\daisytoolchain\arm-none-eabi\include\c++\10.2.1\bits\basic_string.h ****       _M_length(size_type __length)
 183:c:\program files\daisytoolchain\arm-none-eabi\include\c++\10.2.1\bits\basic_string.h ****       { _M_string_length = __length; }
 184:c:\program files\daisytoolchain\arm-none-eabi\include\c++\10.2.1\bits\basic_string.h **** 
 185:c:\program files\daisytoolchain\arm-none-eabi\include\c++\10.2.1\bits\basic_string.h ****       pointer
 186:c:\program files\daisytoolchain\arm-none-eabi\include\c++\10.2.1\bits\basic_string.h ****       _M_data() const
 218              		.loc 5 186 7 is_stmt 1 view .LVU45
 219              	.LBE532:
 220              	.LBB534:
 221              	.LBB535:
 222              	.LBB536:
 187:c:\program files\daisytoolchain\arm-none-eabi\include\c++\10.2.1\bits\basic_string.h ****       { return _M_dataplus._M_p; }
 188:c:\program files\daisytoolchain\arm-none-eabi\include\c++\10.2.1\bits\basic_string.h **** 
 189:c:\program files\daisytoolchain\arm-none-eabi\include\c++\10.2.1\bits\basic_string.h ****       pointer
 190:c:\program files\daisytoolchain\arm-none-eabi\include\c++\10.2.1\bits\basic_string.h ****       _M_local_data()
 191:c:\program files\daisytoolchain\arm-none-eabi\include\c++\10.2.1\bits\basic_string.h ****       {
 192:c:\program files\daisytoolchain\arm-none-eabi\include\c++\10.2.1\bits\basic_string.h **** #if __cplusplus >= 201103L
 193:c:\program files\daisytoolchain\arm-none-eabi\include\c++\10.2.1\bits\basic_string.h **** 	return std::pointer_traits<pointer>::pointer_to(*_M_local_buf);
 194:c:\program files\daisytoolchain\arm-none-eabi\include\c++\10.2.1\bits\basic_string.h **** #else
 195:c:\program files\daisytoolchain\arm-none-eabi\include\c++\10.2.1\bits\basic_string.h **** 	return pointer(_M_local_buf);
 196:c:\program files\daisytoolchain\arm-none-eabi\include\c++\10.2.1\bits\basic_string.h **** #endif
 197:c:\program files\daisytoolchain\arm-none-eabi\include\c++\10.2.1\bits\basic_string.h ****       }
 198:c:\program files\daisytoolchain\arm-none-eabi\include\c++\10.2.1\bits\basic_string.h **** 
 199:c:\program files\daisytoolchain\arm-none-eabi\include\c++\10.2.1\bits\basic_string.h ****       const_pointer
 200:c:\program files\daisytoolchain\arm-none-eabi\include\c++\10.2.1\bits\basic_string.h ****       _M_local_data() const
 201:c:\program files\daisytoolchain\arm-none-eabi\include\c++\10.2.1\bits\basic_string.h ****       {
 202:c:\program files\daisytoolchain\arm-none-eabi\include\c++\10.2.1\bits\basic_string.h **** #if __cplusplus >= 201103L
 203:c:\program files\daisytoolchain\arm-none-eabi\include\c++\10.2.1\bits\basic_string.h **** 	return std::pointer_traits<const_pointer>::pointer_to(*_M_local_buf);
 204:c:\program files\daisytoolchain\arm-none-eabi\include\c++\10.2.1\bits\basic_string.h **** #else
 205:c:\program files\daisytoolchain\arm-none-eabi\include\c++\10.2.1\bits\basic_string.h **** 	return const_pointer(_M_local_buf);
 206:c:\program files\daisytoolchain\arm-none-eabi\include\c++\10.2.1\bits\basic_string.h **** #endif
 207:c:\program files\daisytoolchain\arm-none-eabi\include\c++\10.2.1\bits\basic_string.h ****       }
 208:c:\program files\daisytoolchain\arm-none-eabi\include\c++\10.2.1\bits\basic_string.h **** 
 209:c:\program files\daisytoolchain\arm-none-eabi\include\c++\10.2.1\bits\basic_string.h ****       void
 210:c:\program files\daisytoolchain\arm-none-eabi\include\c++\10.2.1\bits\basic_string.h ****       _M_capacity(size_type __capacity)
 211:c:\program files\daisytoolchain\arm-none-eabi\include\c++\10.2.1\bits\basic_string.h ****       { _M_allocated_capacity = __capacity; }
 212:c:\program files\daisytoolchain\arm-none-eabi\include\c++\10.2.1\bits\basic_string.h **** 
 213:c:\program files\daisytoolchain\arm-none-eabi\include\c++\10.2.1\bits\basic_string.h ****       void
 214:c:\program files\daisytoolchain\arm-none-eabi\include\c++\10.2.1\bits\basic_string.h ****       _M_set_length(size_type __n)
 215:c:\program files\daisytoolchain\arm-none-eabi\include\c++\10.2.1\bits\basic_string.h ****       {
 216:c:\program files\daisytoolchain\arm-none-eabi\include\c++\10.2.1\bits\basic_string.h **** 	_M_length(__n);
 217:c:\program files\daisytoolchain\arm-none-eabi\include\c++\10.2.1\bits\basic_string.h **** 	traits_type::assign(_M_data()[__n], _CharT());
 218:c:\program files\daisytoolchain\arm-none-eabi\include\c++\10.2.1\bits\basic_string.h ****       }
 219:c:\program files\daisytoolchain\arm-none-eabi\include\c++\10.2.1\bits\basic_string.h **** 
 220:c:\program files\daisytoolchain\arm-none-eabi\include\c++\10.2.1\bits\basic_string.h ****       bool
 221:c:\program files\daisytoolchain\arm-none-eabi\include\c++\10.2.1\bits\basic_string.h ****       _M_is_local() const
 222:c:\program files\daisytoolchain\arm-none-eabi\include\c++\10.2.1\bits\basic_string.h ****       { return _M_data() == _M_local_data(); }
 223:c:\program files\daisytoolchain\arm-none-eabi\include\c++\10.2.1\bits\basic_string.h **** 
 224:c:\program files\daisytoolchain\arm-none-eabi\include\c++\10.2.1\bits\basic_string.h ****       // Create & Destroy
 225:c:\program files\daisytoolchain\arm-none-eabi\include\c++\10.2.1\bits\basic_string.h ****       pointer
ARM GAS  C:\Users\ryota\AppData\Local\Temp\ccNuOPtY.s 			page 20


 226:c:\program files\daisytoolchain\arm-none-eabi\include\c++\10.2.1\bits\basic_string.h ****       _M_create(size_type&, size_type);
 227:c:\program files\daisytoolchain\arm-none-eabi\include\c++\10.2.1\bits\basic_string.h **** 
 228:c:\program files\daisytoolchain\arm-none-eabi\include\c++\10.2.1\bits\basic_string.h ****       void
 229:c:\program files\daisytoolchain\arm-none-eabi\include\c++\10.2.1\bits\basic_string.h ****       _M_dispose()
 230:c:\program files\daisytoolchain\arm-none-eabi\include\c++\10.2.1\bits\basic_string.h ****       {
 231:c:\program files\daisytoolchain\arm-none-eabi\include\c++\10.2.1\bits\basic_string.h **** 	if (!_M_is_local())
 232:c:\program files\daisytoolchain\arm-none-eabi\include\c++\10.2.1\bits\basic_string.h **** 	  _M_destroy(_M_allocated_capacity);
 233:c:\program files\daisytoolchain\arm-none-eabi\include\c++\10.2.1\bits\basic_string.h ****       }
 234:c:\program files\daisytoolchain\arm-none-eabi\include\c++\10.2.1\bits\basic_string.h **** 
 235:c:\program files\daisytoolchain\arm-none-eabi\include\c++\10.2.1\bits\basic_string.h ****       void
 236:c:\program files\daisytoolchain\arm-none-eabi\include\c++\10.2.1\bits\basic_string.h ****       _M_destroy(size_type __size) throw()
 237:c:\program files\daisytoolchain\arm-none-eabi\include\c++\10.2.1\bits\basic_string.h ****       { _Alloc_traits::deallocate(_M_get_allocator(), _M_data(), __size + 1); }
 238:c:\program files\daisytoolchain\arm-none-eabi\include\c++\10.2.1\bits\basic_string.h **** 
 239:c:\program files\daisytoolchain\arm-none-eabi\include\c++\10.2.1\bits\basic_string.h ****       // _M_construct_aux is used to implement the 21.3.1 para 15 which
 240:c:\program files\daisytoolchain\arm-none-eabi\include\c++\10.2.1\bits\basic_string.h ****       // requires special behaviour if _InIterator is an integral type
 241:c:\program files\daisytoolchain\arm-none-eabi\include\c++\10.2.1\bits\basic_string.h ****       template<typename _InIterator>
 242:c:\program files\daisytoolchain\arm-none-eabi\include\c++\10.2.1\bits\basic_string.h ****         void
 243:c:\program files\daisytoolchain\arm-none-eabi\include\c++\10.2.1\bits\basic_string.h ****         _M_construct_aux(_InIterator __beg, _InIterator __end,
 244:c:\program files\daisytoolchain\arm-none-eabi\include\c++\10.2.1\bits\basic_string.h **** 			 std::__false_type)
 245:c:\program files\daisytoolchain\arm-none-eabi\include\c++\10.2.1\bits\basic_string.h **** 	{
 246:c:\program files\daisytoolchain\arm-none-eabi\include\c++\10.2.1\bits\basic_string.h ****           typedef typename iterator_traits<_InIterator>::iterator_category _Tag;
 247:c:\program files\daisytoolchain\arm-none-eabi\include\c++\10.2.1\bits\basic_string.h ****           _M_construct(__beg, __end, _Tag());
 248:c:\program files\daisytoolchain\arm-none-eabi\include\c++\10.2.1\bits\basic_string.h **** 	}
 249:c:\program files\daisytoolchain\arm-none-eabi\include\c++\10.2.1\bits\basic_string.h **** 
 250:c:\program files\daisytoolchain\arm-none-eabi\include\c++\10.2.1\bits\basic_string.h ****       // _GLIBCXX_RESOLVE_LIB_DEFECTS
 251:c:\program files\daisytoolchain\arm-none-eabi\include\c++\10.2.1\bits\basic_string.h ****       // 438. Ambiguity in the "do the right thing" clause
 252:c:\program files\daisytoolchain\arm-none-eabi\include\c++\10.2.1\bits\basic_string.h ****       template<typename _Integer>
 253:c:\program files\daisytoolchain\arm-none-eabi\include\c++\10.2.1\bits\basic_string.h ****         void
 254:c:\program files\daisytoolchain\arm-none-eabi\include\c++\10.2.1\bits\basic_string.h ****         _M_construct_aux(_Integer __beg, _Integer __end, std::__true_type)
 255:c:\program files\daisytoolchain\arm-none-eabi\include\c++\10.2.1\bits\basic_string.h **** 	{ _M_construct_aux_2(static_cast<size_type>(__beg), __end); }
 256:c:\program files\daisytoolchain\arm-none-eabi\include\c++\10.2.1\bits\basic_string.h **** 
 257:c:\program files\daisytoolchain\arm-none-eabi\include\c++\10.2.1\bits\basic_string.h ****       void
 258:c:\program files\daisytoolchain\arm-none-eabi\include\c++\10.2.1\bits\basic_string.h ****       _M_construct_aux_2(size_type __req, _CharT __c)
 259:c:\program files\daisytoolchain\arm-none-eabi\include\c++\10.2.1\bits\basic_string.h ****       { _M_construct(__req, __c); }
 260:c:\program files\daisytoolchain\arm-none-eabi\include\c++\10.2.1\bits\basic_string.h **** 
 261:c:\program files\daisytoolchain\arm-none-eabi\include\c++\10.2.1\bits\basic_string.h ****       template<typename _InIterator>
 262:c:\program files\daisytoolchain\arm-none-eabi\include\c++\10.2.1\bits\basic_string.h ****         void
 263:c:\program files\daisytoolchain\arm-none-eabi\include\c++\10.2.1\bits\basic_string.h ****         _M_construct(_InIterator __beg, _InIterator __end)
 264:c:\program files\daisytoolchain\arm-none-eabi\include\c++\10.2.1\bits\basic_string.h **** 	{
 265:c:\program files\daisytoolchain\arm-none-eabi\include\c++\10.2.1\bits\basic_string.h **** 	  typedef typename std::__is_integer<_InIterator>::__type _Integral;
 266:c:\program files\daisytoolchain\arm-none-eabi\include\c++\10.2.1\bits\basic_string.h **** 	  _M_construct_aux(__beg, __end, _Integral());
 267:c:\program files\daisytoolchain\arm-none-eabi\include\c++\10.2.1\bits\basic_string.h ****         }
 268:c:\program files\daisytoolchain\arm-none-eabi\include\c++\10.2.1\bits\basic_string.h **** 
 269:c:\program files\daisytoolchain\arm-none-eabi\include\c++\10.2.1\bits\basic_string.h ****       // For Input Iterators, used in istreambuf_iterators, etc.
 270:c:\program files\daisytoolchain\arm-none-eabi\include\c++\10.2.1\bits\basic_string.h ****       template<typename _InIterator>
 271:c:\program files\daisytoolchain\arm-none-eabi\include\c++\10.2.1\bits\basic_string.h ****         void
 272:c:\program files\daisytoolchain\arm-none-eabi\include\c++\10.2.1\bits\basic_string.h ****         _M_construct(_InIterator __beg, _InIterator __end,
 273:c:\program files\daisytoolchain\arm-none-eabi\include\c++\10.2.1\bits\basic_string.h **** 		     std::input_iterator_tag);
 274:c:\program files\daisytoolchain\arm-none-eabi\include\c++\10.2.1\bits\basic_string.h **** 
 275:c:\program files\daisytoolchain\arm-none-eabi\include\c++\10.2.1\bits\basic_string.h ****       // For forward_iterators up to random_access_iterators, used for
 276:c:\program files\daisytoolchain\arm-none-eabi\include\c++\10.2.1\bits\basic_string.h ****       // string::iterator, _CharT*, etc.
 277:c:\program files\daisytoolchain\arm-none-eabi\include\c++\10.2.1\bits\basic_string.h ****       template<typename _FwdIterator>
 278:c:\program files\daisytoolchain\arm-none-eabi\include\c++\10.2.1\bits\basic_string.h ****         void
 279:c:\program files\daisytoolchain\arm-none-eabi\include\c++\10.2.1\bits\basic_string.h ****         _M_construct(_FwdIterator __beg, _FwdIterator __end,
 280:c:\program files\daisytoolchain\arm-none-eabi\include\c++\10.2.1\bits\basic_string.h **** 		     std::forward_iterator_tag);
 281:c:\program files\daisytoolchain\arm-none-eabi\include\c++\10.2.1\bits\basic_string.h **** 
 282:c:\program files\daisytoolchain\arm-none-eabi\include\c++\10.2.1\bits\basic_string.h ****       void
ARM GAS  C:\Users\ryota\AppData\Local\Temp\ccNuOPtY.s 			page 21


 283:c:\program files\daisytoolchain\arm-none-eabi\include\c++\10.2.1\bits\basic_string.h ****       _M_construct(size_type __req, _CharT __c);
 284:c:\program files\daisytoolchain\arm-none-eabi\include\c++\10.2.1\bits\basic_string.h **** 
 285:c:\program files\daisytoolchain\arm-none-eabi\include\c++\10.2.1\bits\basic_string.h ****       allocator_type&
 286:c:\program files\daisytoolchain\arm-none-eabi\include\c++\10.2.1\bits\basic_string.h ****       _M_get_allocator()
 287:c:\program files\daisytoolchain\arm-none-eabi\include\c++\10.2.1\bits\basic_string.h ****       { return _M_dataplus; }
 288:c:\program files\daisytoolchain\arm-none-eabi\include\c++\10.2.1\bits\basic_string.h **** 
 289:c:\program files\daisytoolchain\arm-none-eabi\include\c++\10.2.1\bits\basic_string.h ****       const allocator_type&
 290:c:\program files\daisytoolchain\arm-none-eabi\include\c++\10.2.1\bits\basic_string.h ****       _M_get_allocator() const
 291:c:\program files\daisytoolchain\arm-none-eabi\include\c++\10.2.1\bits\basic_string.h ****       { return _M_dataplus; }
 292:c:\program files\daisytoolchain\arm-none-eabi\include\c++\10.2.1\bits\basic_string.h **** 
 293:c:\program files\daisytoolchain\arm-none-eabi\include\c++\10.2.1\bits\basic_string.h ****     private:
 294:c:\program files\daisytoolchain\arm-none-eabi\include\c++\10.2.1\bits\basic_string.h **** 
 295:c:\program files\daisytoolchain\arm-none-eabi\include\c++\10.2.1\bits\basic_string.h **** #ifdef _GLIBCXX_DISAMBIGUATE_REPLACE_INST
 296:c:\program files\daisytoolchain\arm-none-eabi\include\c++\10.2.1\bits\basic_string.h ****       // The explicit instantiations in misc-inst.cc require this due to
 297:c:\program files\daisytoolchain\arm-none-eabi\include\c++\10.2.1\bits\basic_string.h ****       // https://gcc.gnu.org/bugzilla/show_bug.cgi?id=64063
 298:c:\program files\daisytoolchain\arm-none-eabi\include\c++\10.2.1\bits\basic_string.h ****       template<typename _Tp, bool _Requires =
 299:c:\program files\daisytoolchain\arm-none-eabi\include\c++\10.2.1\bits\basic_string.h **** 	       !__are_same<_Tp, _CharT*>::__value
 300:c:\program files\daisytoolchain\arm-none-eabi\include\c++\10.2.1\bits\basic_string.h **** 	       && !__are_same<_Tp, const _CharT*>::__value
 301:c:\program files\daisytoolchain\arm-none-eabi\include\c++\10.2.1\bits\basic_string.h **** 	       && !__are_same<_Tp, iterator>::__value
 302:c:\program files\daisytoolchain\arm-none-eabi\include\c++\10.2.1\bits\basic_string.h **** 	       && !__are_same<_Tp, const_iterator>::__value>
 303:c:\program files\daisytoolchain\arm-none-eabi\include\c++\10.2.1\bits\basic_string.h **** 	struct __enable_if_not_native_iterator
 304:c:\program files\daisytoolchain\arm-none-eabi\include\c++\10.2.1\bits\basic_string.h **** 	{ typedef basic_string& __type; };
 305:c:\program files\daisytoolchain\arm-none-eabi\include\c++\10.2.1\bits\basic_string.h ****       template<typename _Tp>
 306:c:\program files\daisytoolchain\arm-none-eabi\include\c++\10.2.1\bits\basic_string.h **** 	struct __enable_if_not_native_iterator<_Tp, false> { };
 307:c:\program files\daisytoolchain\arm-none-eabi\include\c++\10.2.1\bits\basic_string.h **** #endif
 308:c:\program files\daisytoolchain\arm-none-eabi\include\c++\10.2.1\bits\basic_string.h **** 
 309:c:\program files\daisytoolchain\arm-none-eabi\include\c++\10.2.1\bits\basic_string.h ****       size_type
 310:c:\program files\daisytoolchain\arm-none-eabi\include\c++\10.2.1\bits\basic_string.h ****       _M_check(size_type __pos, const char* __s) const
 311:c:\program files\daisytoolchain\arm-none-eabi\include\c++\10.2.1\bits\basic_string.h ****       {
 312:c:\program files\daisytoolchain\arm-none-eabi\include\c++\10.2.1\bits\basic_string.h **** 	if (__pos > this->size())
 313:c:\program files\daisytoolchain\arm-none-eabi\include\c++\10.2.1\bits\basic_string.h **** 	  __throw_out_of_range_fmt(__N("%s: __pos (which is %zu) > "
 314:c:\program files\daisytoolchain\arm-none-eabi\include\c++\10.2.1\bits\basic_string.h **** 				       "this->size() (which is %zu)"),
 315:c:\program files\daisytoolchain\arm-none-eabi\include\c++\10.2.1\bits\basic_string.h **** 				   __s, __pos, this->size());
 316:c:\program files\daisytoolchain\arm-none-eabi\include\c++\10.2.1\bits\basic_string.h **** 	return __pos;
 317:c:\program files\daisytoolchain\arm-none-eabi\include\c++\10.2.1\bits\basic_string.h ****       }
 318:c:\program files\daisytoolchain\arm-none-eabi\include\c++\10.2.1\bits\basic_string.h **** 
 319:c:\program files\daisytoolchain\arm-none-eabi\include\c++\10.2.1\bits\basic_string.h ****       void
 320:c:\program files\daisytoolchain\arm-none-eabi\include\c++\10.2.1\bits\basic_string.h ****       _M_check_length(size_type __n1, size_type __n2, const char* __s) const
 321:c:\program files\daisytoolchain\arm-none-eabi\include\c++\10.2.1\bits\basic_string.h ****       {
 322:c:\program files\daisytoolchain\arm-none-eabi\include\c++\10.2.1\bits\basic_string.h **** 	if (this->max_size() - (this->size() - __n1) < __n2)
 323:c:\program files\daisytoolchain\arm-none-eabi\include\c++\10.2.1\bits\basic_string.h **** 	  __throw_length_error(__N(__s));
 324:c:\program files\daisytoolchain\arm-none-eabi\include\c++\10.2.1\bits\basic_string.h ****       }
 325:c:\program files\daisytoolchain\arm-none-eabi\include\c++\10.2.1\bits\basic_string.h **** 
 326:c:\program files\daisytoolchain\arm-none-eabi\include\c++\10.2.1\bits\basic_string.h **** 
 327:c:\program files\daisytoolchain\arm-none-eabi\include\c++\10.2.1\bits\basic_string.h ****       // NB: _M_limit doesn't check for a bad __pos value.
 328:c:\program files\daisytoolchain\arm-none-eabi\include\c++\10.2.1\bits\basic_string.h ****       size_type
 329:c:\program files\daisytoolchain\arm-none-eabi\include\c++\10.2.1\bits\basic_string.h ****       _M_limit(size_type __pos, size_type __off) const _GLIBCXX_NOEXCEPT
 330:c:\program files\daisytoolchain\arm-none-eabi\include\c++\10.2.1\bits\basic_string.h ****       {
 331:c:\program files\daisytoolchain\arm-none-eabi\include\c++\10.2.1\bits\basic_string.h **** 	const bool __testoff =  __off < this->size() - __pos;
 332:c:\program files\daisytoolchain\arm-none-eabi\include\c++\10.2.1\bits\basic_string.h **** 	return __testoff ? __off : this->size() - __pos;
 333:c:\program files\daisytoolchain\arm-none-eabi\include\c++\10.2.1\bits\basic_string.h ****       }
 334:c:\program files\daisytoolchain\arm-none-eabi\include\c++\10.2.1\bits\basic_string.h **** 
 335:c:\program files\daisytoolchain\arm-none-eabi\include\c++\10.2.1\bits\basic_string.h ****       // True if _Rep and source do not overlap.
 336:c:\program files\daisytoolchain\arm-none-eabi\include\c++\10.2.1\bits\basic_string.h ****       bool
 337:c:\program files\daisytoolchain\arm-none-eabi\include\c++\10.2.1\bits\basic_string.h ****       _M_disjunct(const _CharT* __s) const _GLIBCXX_NOEXCEPT
 338:c:\program files\daisytoolchain\arm-none-eabi\include\c++\10.2.1\bits\basic_string.h ****       {
 339:c:\program files\daisytoolchain\arm-none-eabi\include\c++\10.2.1\bits\basic_string.h **** 	return (less<const _CharT*>()(__s, _M_data())
ARM GAS  C:\Users\ryota\AppData\Local\Temp\ccNuOPtY.s 			page 22


 340:c:\program files\daisytoolchain\arm-none-eabi\include\c++\10.2.1\bits\basic_string.h **** 		|| less<const _CharT*>()(_M_data() + this->size(), __s));
 341:c:\program files\daisytoolchain\arm-none-eabi\include\c++\10.2.1\bits\basic_string.h ****       }
 342:c:\program files\daisytoolchain\arm-none-eabi\include\c++\10.2.1\bits\basic_string.h **** 
 343:c:\program files\daisytoolchain\arm-none-eabi\include\c++\10.2.1\bits\basic_string.h ****       // When __n = 1 way faster than the general multichar
 344:c:\program files\daisytoolchain\arm-none-eabi\include\c++\10.2.1\bits\basic_string.h ****       // traits_type::copy/move/assign.
 345:c:\program files\daisytoolchain\arm-none-eabi\include\c++\10.2.1\bits\basic_string.h ****       static void
 346:c:\program files\daisytoolchain\arm-none-eabi\include\c++\10.2.1\bits\basic_string.h ****       _S_copy(_CharT* __d, const _CharT* __s, size_type __n)
 347:c:\program files\daisytoolchain\arm-none-eabi\include\c++\10.2.1\bits\basic_string.h ****       {
 348:c:\program files\daisytoolchain\arm-none-eabi\include\c++\10.2.1\bits\basic_string.h **** 	if (__n == 1)
 223              		.loc 5 348 2 is_stmt 0 view .LVU46
 224 0014 012C     		cmp	r4, #1
 225              	.LBE536:
 226              	.LBE535:
 227              	.LBE534:
 228              	.LBB556:
 229              	.LBB533:
 187:c:\program files\daisytoolchain\arm-none-eabi\include\c++\10.2.1\bits\basic_string.h ****       { return _M_dataplus._M_p; }
 230              		.loc 5 187 28 view .LVU47
 231 0016 2868     		ldr	r0, [r5]
 232              	.LVL13:
 187:c:\program files\daisytoolchain\arm-none-eabi\include\c++\10.2.1\bits\basic_string.h ****       { return _M_dataplus._M_p; }
 233              		.loc 5 187 28 view .LVU48
 234              	.LBE533:
 235              	.LBE556:
 236              	.LBB557:
 237              	.LBI534:
 349:c:\program files\daisytoolchain\arm-none-eabi\include\c++\10.2.1\bits\basic_string.h **** 	  traits_type::assign(*__d, *__s);
 350:c:\program files\daisytoolchain\arm-none-eabi\include\c++\10.2.1\bits\basic_string.h **** 	else
 351:c:\program files\daisytoolchain\arm-none-eabi\include\c++\10.2.1\bits\basic_string.h **** 	  traits_type::copy(__d, __s, __n);
 352:c:\program files\daisytoolchain\arm-none-eabi\include\c++\10.2.1\bits\basic_string.h ****       }
 353:c:\program files\daisytoolchain\arm-none-eabi\include\c++\10.2.1\bits\basic_string.h **** 
 354:c:\program files\daisytoolchain\arm-none-eabi\include\c++\10.2.1\bits\basic_string.h ****       static void
 355:c:\program files\daisytoolchain\arm-none-eabi\include\c++\10.2.1\bits\basic_string.h ****       _S_move(_CharT* __d, const _CharT* __s, size_type __n)
 356:c:\program files\daisytoolchain\arm-none-eabi\include\c++\10.2.1\bits\basic_string.h ****       {
 357:c:\program files\daisytoolchain\arm-none-eabi\include\c++\10.2.1\bits\basic_string.h **** 	if (__n == 1)
 358:c:\program files\daisytoolchain\arm-none-eabi\include\c++\10.2.1\bits\basic_string.h **** 	  traits_type::assign(*__d, *__s);
 359:c:\program files\daisytoolchain\arm-none-eabi\include\c++\10.2.1\bits\basic_string.h **** 	else
 360:c:\program files\daisytoolchain\arm-none-eabi\include\c++\10.2.1\bits\basic_string.h **** 	  traits_type::move(__d, __s, __n);
 361:c:\program files\daisytoolchain\arm-none-eabi\include\c++\10.2.1\bits\basic_string.h ****       }
 362:c:\program files\daisytoolchain\arm-none-eabi\include\c++\10.2.1\bits\basic_string.h **** 
 363:c:\program files\daisytoolchain\arm-none-eabi\include\c++\10.2.1\bits\basic_string.h ****       static void
 364:c:\program files\daisytoolchain\arm-none-eabi\include\c++\10.2.1\bits\basic_string.h ****       _S_assign(_CharT* __d, size_type __n, _CharT __c)
 365:c:\program files\daisytoolchain\arm-none-eabi\include\c++\10.2.1\bits\basic_string.h ****       {
 366:c:\program files\daisytoolchain\arm-none-eabi\include\c++\10.2.1\bits\basic_string.h **** 	if (__n == 1)
 367:c:\program files\daisytoolchain\arm-none-eabi\include\c++\10.2.1\bits\basic_string.h **** 	  traits_type::assign(*__d, __c);
 368:c:\program files\daisytoolchain\arm-none-eabi\include\c++\10.2.1\bits\basic_string.h **** 	else
 369:c:\program files\daisytoolchain\arm-none-eabi\include\c++\10.2.1\bits\basic_string.h **** 	  traits_type::assign(__d, __n, __c);
 370:c:\program files\daisytoolchain\arm-none-eabi\include\c++\10.2.1\bits\basic_string.h ****       }
 371:c:\program files\daisytoolchain\arm-none-eabi\include\c++\10.2.1\bits\basic_string.h **** 
 372:c:\program files\daisytoolchain\arm-none-eabi\include\c++\10.2.1\bits\basic_string.h ****       // _S_copy_chars is a separate template to permit specialization
 373:c:\program files\daisytoolchain\arm-none-eabi\include\c++\10.2.1\bits\basic_string.h ****       // to optimize for the common case of pointers as iterators.
 374:c:\program files\daisytoolchain\arm-none-eabi\include\c++\10.2.1\bits\basic_string.h ****       template<class _Iterator>
 375:c:\program files\daisytoolchain\arm-none-eabi\include\c++\10.2.1\bits\basic_string.h ****         static void
 376:c:\program files\daisytoolchain\arm-none-eabi\include\c++\10.2.1\bits\basic_string.h ****         _S_copy_chars(_CharT* __p, _Iterator __k1, _Iterator __k2)
 377:c:\program files\daisytoolchain\arm-none-eabi\include\c++\10.2.1\bits\basic_string.h ****         {
 378:c:\program files\daisytoolchain\arm-none-eabi\include\c++\10.2.1\bits\basic_string.h **** 	  for (; __k1 != __k2; ++__k1, (void)++__p)
 379:c:\program files\daisytoolchain\arm-none-eabi\include\c++\10.2.1\bits\basic_string.h **** 	    traits_type::assign(*__p, *__k1); // These types are off.
ARM GAS  C:\Users\ryota\AppData\Local\Temp\ccNuOPtY.s 			page 23


 380:c:\program files\daisytoolchain\arm-none-eabi\include\c++\10.2.1\bits\basic_string.h **** 	}
 381:c:\program files\daisytoolchain\arm-none-eabi\include\c++\10.2.1\bits\basic_string.h **** 
 382:c:\program files\daisytoolchain\arm-none-eabi\include\c++\10.2.1\bits\basic_string.h ****       static void
 383:c:\program files\daisytoolchain\arm-none-eabi\include\c++\10.2.1\bits\basic_string.h ****       _S_copy_chars(_CharT* __p, iterator __k1, iterator __k2) _GLIBCXX_NOEXCEPT
 384:c:\program files\daisytoolchain\arm-none-eabi\include\c++\10.2.1\bits\basic_string.h ****       { _S_copy_chars(__p, __k1.base(), __k2.base()); }
 385:c:\program files\daisytoolchain\arm-none-eabi\include\c++\10.2.1\bits\basic_string.h **** 
 386:c:\program files\daisytoolchain\arm-none-eabi\include\c++\10.2.1\bits\basic_string.h ****       static void
 387:c:\program files\daisytoolchain\arm-none-eabi\include\c++\10.2.1\bits\basic_string.h ****       _S_copy_chars(_CharT* __p, const_iterator __k1, const_iterator __k2)
 388:c:\program files\daisytoolchain\arm-none-eabi\include\c++\10.2.1\bits\basic_string.h ****       _GLIBCXX_NOEXCEPT
 389:c:\program files\daisytoolchain\arm-none-eabi\include\c++\10.2.1\bits\basic_string.h ****       { _S_copy_chars(__p, __k1.base(), __k2.base()); }
 390:c:\program files\daisytoolchain\arm-none-eabi\include\c++\10.2.1\bits\basic_string.h **** 
 391:c:\program files\daisytoolchain\arm-none-eabi\include\c++\10.2.1\bits\basic_string.h ****       static void
 392:c:\program files\daisytoolchain\arm-none-eabi\include\c++\10.2.1\bits\basic_string.h ****       _S_copy_chars(_CharT* __p, _CharT* __k1, _CharT* __k2) _GLIBCXX_NOEXCEPT
 238              		.loc 5 392 7 is_stmt 1 view .LVU49
 239              	.LBB552:
 240              	.LBI535:
 346:c:\program files\daisytoolchain\arm-none-eabi\include\c++\10.2.1\bits\basic_string.h ****       {
 241              		.loc 5 346 7 view .LVU50
 242              	.LBB548:
 348:c:\program files\daisytoolchain\arm-none-eabi\include\c++\10.2.1\bits\basic_string.h **** 	  traits_type::assign(*__d, *__s);
 243              		.loc 5 348 2 is_stmt 0 view .LVU51
 244 0018 08D1     		bne	.L33
 245              	.LVL14:
 246              	.LBB537:
 247              	.LBI537:
 248              		.file 6 "c:\\program files\\daisytoolchain\\arm-none-eabi\\include\\c++\\10.2.1\\bits\\char_traits
   1:c:\program files\daisytoolchain\arm-none-eabi\include\c++\10.2.1\bits\char_traits.h **** // Character Traits for use by standard string and iostream -*- C++ -*-
   2:c:\program files\daisytoolchain\arm-none-eabi\include\c++\10.2.1\bits\char_traits.h **** 
   3:c:\program files\daisytoolchain\arm-none-eabi\include\c++\10.2.1\bits\char_traits.h **** // Copyright (C) 1997-2020 Free Software Foundation, Inc.
   4:c:\program files\daisytoolchain\arm-none-eabi\include\c++\10.2.1\bits\char_traits.h **** //
   5:c:\program files\daisytoolchain\arm-none-eabi\include\c++\10.2.1\bits\char_traits.h **** // This file is part of the GNU ISO C++ Library.  This library is free
   6:c:\program files\daisytoolchain\arm-none-eabi\include\c++\10.2.1\bits\char_traits.h **** // software; you can redistribute it and/or modify it under the
   7:c:\program files\daisytoolchain\arm-none-eabi\include\c++\10.2.1\bits\char_traits.h **** // terms of the GNU General Public License as published by the
   8:c:\program files\daisytoolchain\arm-none-eabi\include\c++\10.2.1\bits\char_traits.h **** // Free Software Foundation; either version 3, or (at your option)
   9:c:\program files\daisytoolchain\arm-none-eabi\include\c++\10.2.1\bits\char_traits.h **** // any later version.
  10:c:\program files\daisytoolchain\arm-none-eabi\include\c++\10.2.1\bits\char_traits.h **** 
  11:c:\program files\daisytoolchain\arm-none-eabi\include\c++\10.2.1\bits\char_traits.h **** // This library is distributed in the hope that it will be useful,
  12:c:\program files\daisytoolchain\arm-none-eabi\include\c++\10.2.1\bits\char_traits.h **** // but WITHOUT ANY WARRANTY; without even the implied warranty of
  13:c:\program files\daisytoolchain\arm-none-eabi\include\c++\10.2.1\bits\char_traits.h **** // MERCHANTABILITY or FITNESS FOR A PARTICULAR PURPOSE.  See the
  14:c:\program files\daisytoolchain\arm-none-eabi\include\c++\10.2.1\bits\char_traits.h **** // GNU General Public License for more details.
  15:c:\program files\daisytoolchain\arm-none-eabi\include\c++\10.2.1\bits\char_traits.h **** 
  16:c:\program files\daisytoolchain\arm-none-eabi\include\c++\10.2.1\bits\char_traits.h **** // Under Section 7 of GPL version 3, you are granted additional
  17:c:\program files\daisytoolchain\arm-none-eabi\include\c++\10.2.1\bits\char_traits.h **** // permissions described in the GCC Runtime Library Exception, version
  18:c:\program files\daisytoolchain\arm-none-eabi\include\c++\10.2.1\bits\char_traits.h **** // 3.1, as published by the Free Software Foundation.
  19:c:\program files\daisytoolchain\arm-none-eabi\include\c++\10.2.1\bits\char_traits.h **** 
  20:c:\program files\daisytoolchain\arm-none-eabi\include\c++\10.2.1\bits\char_traits.h **** // You should have received a copy of the GNU General Public License and
  21:c:\program files\daisytoolchain\arm-none-eabi\include\c++\10.2.1\bits\char_traits.h **** // a copy of the GCC Runtime Library Exception along with this program;
  22:c:\program files\daisytoolchain\arm-none-eabi\include\c++\10.2.1\bits\char_traits.h **** // see the files COPYING3 and COPYING.RUNTIME respectively.  If not, see
  23:c:\program files\daisytoolchain\arm-none-eabi\include\c++\10.2.1\bits\char_traits.h **** // <http://www.gnu.org/licenses/>.
  24:c:\program files\daisytoolchain\arm-none-eabi\include\c++\10.2.1\bits\char_traits.h **** 
  25:c:\program files\daisytoolchain\arm-none-eabi\include\c++\10.2.1\bits\char_traits.h **** /** @file bits/char_traits.h
  26:c:\program files\daisytoolchain\arm-none-eabi\include\c++\10.2.1\bits\char_traits.h ****  *  This is an internal header file, included by other library headers.
  27:c:\program files\daisytoolchain\arm-none-eabi\include\c++\10.2.1\bits\char_traits.h ****  *  Do not attempt to use it directly. @headername{string}
  28:c:\program files\daisytoolchain\arm-none-eabi\include\c++\10.2.1\bits\char_traits.h ****  */
  29:c:\program files\daisytoolchain\arm-none-eabi\include\c++\10.2.1\bits\char_traits.h **** 
  30:c:\program files\daisytoolchain\arm-none-eabi\include\c++\10.2.1\bits\char_traits.h **** //
  31:c:\program files\daisytoolchain\arm-none-eabi\include\c++\10.2.1\bits\char_traits.h **** // ISO C++ 14882: 21  Strings library
ARM GAS  C:\Users\ryota\AppData\Local\Temp\ccNuOPtY.s 			page 24


  32:c:\program files\daisytoolchain\arm-none-eabi\include\c++\10.2.1\bits\char_traits.h **** //
  33:c:\program files\daisytoolchain\arm-none-eabi\include\c++\10.2.1\bits\char_traits.h **** 
  34:c:\program files\daisytoolchain\arm-none-eabi\include\c++\10.2.1\bits\char_traits.h **** #ifndef _CHAR_TRAITS_H
  35:c:\program files\daisytoolchain\arm-none-eabi\include\c++\10.2.1\bits\char_traits.h **** #define _CHAR_TRAITS_H 1
  36:c:\program files\daisytoolchain\arm-none-eabi\include\c++\10.2.1\bits\char_traits.h **** 
  37:c:\program files\daisytoolchain\arm-none-eabi\include\c++\10.2.1\bits\char_traits.h **** #pragma GCC system_header
  38:c:\program files\daisytoolchain\arm-none-eabi\include\c++\10.2.1\bits\char_traits.h **** 
  39:c:\program files\daisytoolchain\arm-none-eabi\include\c++\10.2.1\bits\char_traits.h **** #include <bits/stl_algobase.h>  // std::copy, std::fill_n
  40:c:\program files\daisytoolchain\arm-none-eabi\include\c++\10.2.1\bits\char_traits.h **** #include <bits/postypes.h>      // For streampos
  41:c:\program files\daisytoolchain\arm-none-eabi\include\c++\10.2.1\bits\char_traits.h **** #include <cwchar>               // For WEOF, wmemmove, wmemset, etc.
  42:c:\program files\daisytoolchain\arm-none-eabi\include\c++\10.2.1\bits\char_traits.h **** #if __cplusplus > 201703L
  43:c:\program files\daisytoolchain\arm-none-eabi\include\c++\10.2.1\bits\char_traits.h **** # include <compare>
  44:c:\program files\daisytoolchain\arm-none-eabi\include\c++\10.2.1\bits\char_traits.h **** #endif
  45:c:\program files\daisytoolchain\arm-none-eabi\include\c++\10.2.1\bits\char_traits.h **** 
  46:c:\program files\daisytoolchain\arm-none-eabi\include\c++\10.2.1\bits\char_traits.h **** #ifndef _GLIBCXX_ALWAYS_INLINE
  47:c:\program files\daisytoolchain\arm-none-eabi\include\c++\10.2.1\bits\char_traits.h **** # define _GLIBCXX_ALWAYS_INLINE inline __attribute__((__always_inline__))
  48:c:\program files\daisytoolchain\arm-none-eabi\include\c++\10.2.1\bits\char_traits.h **** #endif
  49:c:\program files\daisytoolchain\arm-none-eabi\include\c++\10.2.1\bits\char_traits.h **** 
  50:c:\program files\daisytoolchain\arm-none-eabi\include\c++\10.2.1\bits\char_traits.h **** namespace __gnu_cxx _GLIBCXX_VISIBILITY(default)
  51:c:\program files\daisytoolchain\arm-none-eabi\include\c++\10.2.1\bits\char_traits.h **** {
  52:c:\program files\daisytoolchain\arm-none-eabi\include\c++\10.2.1\bits\char_traits.h **** _GLIBCXX_BEGIN_NAMESPACE_VERSION
  53:c:\program files\daisytoolchain\arm-none-eabi\include\c++\10.2.1\bits\char_traits.h **** 
  54:c:\program files\daisytoolchain\arm-none-eabi\include\c++\10.2.1\bits\char_traits.h ****   /**
  55:c:\program files\daisytoolchain\arm-none-eabi\include\c++\10.2.1\bits\char_traits.h ****    *  @brief  Mapping from character type to associated types.
  56:c:\program files\daisytoolchain\arm-none-eabi\include\c++\10.2.1\bits\char_traits.h ****    *
  57:c:\program files\daisytoolchain\arm-none-eabi\include\c++\10.2.1\bits\char_traits.h ****    *  @note This is an implementation class for the generic version
  58:c:\program files\daisytoolchain\arm-none-eabi\include\c++\10.2.1\bits\char_traits.h ****    *  of char_traits.  It defines int_type, off_type, pos_type, and
  59:c:\program files\daisytoolchain\arm-none-eabi\include\c++\10.2.1\bits\char_traits.h ****    *  state_type.  By default these are unsigned long, streamoff,
  60:c:\program files\daisytoolchain\arm-none-eabi\include\c++\10.2.1\bits\char_traits.h ****    *  streampos, and mbstate_t.  Users who need a different set of
  61:c:\program files\daisytoolchain\arm-none-eabi\include\c++\10.2.1\bits\char_traits.h ****    *  types, but who don't need to change the definitions of any function
  62:c:\program files\daisytoolchain\arm-none-eabi\include\c++\10.2.1\bits\char_traits.h ****    *  defined in char_traits, can specialize __gnu_cxx::_Char_types
  63:c:\program files\daisytoolchain\arm-none-eabi\include\c++\10.2.1\bits\char_traits.h ****    *  while leaving __gnu_cxx::char_traits alone. */
  64:c:\program files\daisytoolchain\arm-none-eabi\include\c++\10.2.1\bits\char_traits.h ****   template<typename _CharT>
  65:c:\program files\daisytoolchain\arm-none-eabi\include\c++\10.2.1\bits\char_traits.h ****     struct _Char_types
  66:c:\program files\daisytoolchain\arm-none-eabi\include\c++\10.2.1\bits\char_traits.h ****     {
  67:c:\program files\daisytoolchain\arm-none-eabi\include\c++\10.2.1\bits\char_traits.h ****       typedef unsigned long   int_type;
  68:c:\program files\daisytoolchain\arm-none-eabi\include\c++\10.2.1\bits\char_traits.h ****       typedef std::streampos  pos_type;
  69:c:\program files\daisytoolchain\arm-none-eabi\include\c++\10.2.1\bits\char_traits.h ****       typedef std::streamoff  off_type;
  70:c:\program files\daisytoolchain\arm-none-eabi\include\c++\10.2.1\bits\char_traits.h ****       typedef std::mbstate_t  state_type;
  71:c:\program files\daisytoolchain\arm-none-eabi\include\c++\10.2.1\bits\char_traits.h ****     };
  72:c:\program files\daisytoolchain\arm-none-eabi\include\c++\10.2.1\bits\char_traits.h **** 
  73:c:\program files\daisytoolchain\arm-none-eabi\include\c++\10.2.1\bits\char_traits.h **** 
  74:c:\program files\daisytoolchain\arm-none-eabi\include\c++\10.2.1\bits\char_traits.h ****   /**
  75:c:\program files\daisytoolchain\arm-none-eabi\include\c++\10.2.1\bits\char_traits.h ****    *  @brief  Base class used to implement std::char_traits.
  76:c:\program files\daisytoolchain\arm-none-eabi\include\c++\10.2.1\bits\char_traits.h ****    *
  77:c:\program files\daisytoolchain\arm-none-eabi\include\c++\10.2.1\bits\char_traits.h ****    *  @note For any given actual character type, this definition is
  78:c:\program files\daisytoolchain\arm-none-eabi\include\c++\10.2.1\bits\char_traits.h ****    *  probably wrong.  (Most of the member functions are likely to be
  79:c:\program files\daisytoolchain\arm-none-eabi\include\c++\10.2.1\bits\char_traits.h ****    *  right, but the int_type and state_type typedefs, and the eof()
  80:c:\program files\daisytoolchain\arm-none-eabi\include\c++\10.2.1\bits\char_traits.h ****    *  member function, are likely to be wrong.)  The reason this class
  81:c:\program files\daisytoolchain\arm-none-eabi\include\c++\10.2.1\bits\char_traits.h ****    *  exists is so users can specialize it.  Classes in namespace std
  82:c:\program files\daisytoolchain\arm-none-eabi\include\c++\10.2.1\bits\char_traits.h ****    *  may not be specialized for fundamental types, but classes in
  83:c:\program files\daisytoolchain\arm-none-eabi\include\c++\10.2.1\bits\char_traits.h ****    *  namespace __gnu_cxx may be.
  84:c:\program files\daisytoolchain\arm-none-eabi\include\c++\10.2.1\bits\char_traits.h ****    *
  85:c:\program files\daisytoolchain\arm-none-eabi\include\c++\10.2.1\bits\char_traits.h ****    *  See https://gcc.gnu.org/onlinedocs/libstdc++/manual/strings.html#strings.string.character_typ
  86:c:\program files\daisytoolchain\arm-none-eabi\include\c++\10.2.1\bits\char_traits.h ****    *  for advice on how to make use of this class for @a unusual character
  87:c:\program files\daisytoolchain\arm-none-eabi\include\c++\10.2.1\bits\char_traits.h ****    *  types. Also, check out include/ext/pod_char_traits.h.  
  88:c:\program files\daisytoolchain\arm-none-eabi\include\c++\10.2.1\bits\char_traits.h ****    */
ARM GAS  C:\Users\ryota\AppData\Local\Temp\ccNuOPtY.s 			page 25


  89:c:\program files\daisytoolchain\arm-none-eabi\include\c++\10.2.1\bits\char_traits.h ****   template<typename _CharT>
  90:c:\program files\daisytoolchain\arm-none-eabi\include\c++\10.2.1\bits\char_traits.h ****     struct char_traits
  91:c:\program files\daisytoolchain\arm-none-eabi\include\c++\10.2.1\bits\char_traits.h ****     {
  92:c:\program files\daisytoolchain\arm-none-eabi\include\c++\10.2.1\bits\char_traits.h ****       typedef _CharT                                    char_type;
  93:c:\program files\daisytoolchain\arm-none-eabi\include\c++\10.2.1\bits\char_traits.h ****       typedef typename _Char_types<_CharT>::int_type    int_type;
  94:c:\program files\daisytoolchain\arm-none-eabi\include\c++\10.2.1\bits\char_traits.h ****       typedef typename _Char_types<_CharT>::pos_type    pos_type;
  95:c:\program files\daisytoolchain\arm-none-eabi\include\c++\10.2.1\bits\char_traits.h ****       typedef typename _Char_types<_CharT>::off_type    off_type;
  96:c:\program files\daisytoolchain\arm-none-eabi\include\c++\10.2.1\bits\char_traits.h ****       typedef typename _Char_types<_CharT>::state_type  state_type;
  97:c:\program files\daisytoolchain\arm-none-eabi\include\c++\10.2.1\bits\char_traits.h **** #if __cpp_lib_three_way_comparison
  98:c:\program files\daisytoolchain\arm-none-eabi\include\c++\10.2.1\bits\char_traits.h ****       using comparison_category = std::strong_ordering;
  99:c:\program files\daisytoolchain\arm-none-eabi\include\c++\10.2.1\bits\char_traits.h **** #endif
 100:c:\program files\daisytoolchain\arm-none-eabi\include\c++\10.2.1\bits\char_traits.h **** 
 101:c:\program files\daisytoolchain\arm-none-eabi\include\c++\10.2.1\bits\char_traits.h ****       static _GLIBCXX14_CONSTEXPR void
 102:c:\program files\daisytoolchain\arm-none-eabi\include\c++\10.2.1\bits\char_traits.h ****       assign(char_type& __c1, const char_type& __c2)
 103:c:\program files\daisytoolchain\arm-none-eabi\include\c++\10.2.1\bits\char_traits.h ****       { __c1 = __c2; }
 104:c:\program files\daisytoolchain\arm-none-eabi\include\c++\10.2.1\bits\char_traits.h **** 
 105:c:\program files\daisytoolchain\arm-none-eabi\include\c++\10.2.1\bits\char_traits.h ****       static _GLIBCXX_CONSTEXPR bool
 106:c:\program files\daisytoolchain\arm-none-eabi\include\c++\10.2.1\bits\char_traits.h ****       eq(const char_type& __c1, const char_type& __c2)
 107:c:\program files\daisytoolchain\arm-none-eabi\include\c++\10.2.1\bits\char_traits.h ****       { return __c1 == __c2; }
 108:c:\program files\daisytoolchain\arm-none-eabi\include\c++\10.2.1\bits\char_traits.h **** 
 109:c:\program files\daisytoolchain\arm-none-eabi\include\c++\10.2.1\bits\char_traits.h ****       static _GLIBCXX_CONSTEXPR bool
 110:c:\program files\daisytoolchain\arm-none-eabi\include\c++\10.2.1\bits\char_traits.h ****       lt(const char_type& __c1, const char_type& __c2)
 111:c:\program files\daisytoolchain\arm-none-eabi\include\c++\10.2.1\bits\char_traits.h ****       { return __c1 < __c2; }
 112:c:\program files\daisytoolchain\arm-none-eabi\include\c++\10.2.1\bits\char_traits.h **** 
 113:c:\program files\daisytoolchain\arm-none-eabi\include\c++\10.2.1\bits\char_traits.h ****       static _GLIBCXX14_CONSTEXPR int
 114:c:\program files\daisytoolchain\arm-none-eabi\include\c++\10.2.1\bits\char_traits.h ****       compare(const char_type* __s1, const char_type* __s2, std::size_t __n);
 115:c:\program files\daisytoolchain\arm-none-eabi\include\c++\10.2.1\bits\char_traits.h **** 
 116:c:\program files\daisytoolchain\arm-none-eabi\include\c++\10.2.1\bits\char_traits.h ****       static _GLIBCXX14_CONSTEXPR std::size_t
 117:c:\program files\daisytoolchain\arm-none-eabi\include\c++\10.2.1\bits\char_traits.h ****       length(const char_type* __s);
 118:c:\program files\daisytoolchain\arm-none-eabi\include\c++\10.2.1\bits\char_traits.h **** 
 119:c:\program files\daisytoolchain\arm-none-eabi\include\c++\10.2.1\bits\char_traits.h ****       static _GLIBCXX14_CONSTEXPR const char_type*
 120:c:\program files\daisytoolchain\arm-none-eabi\include\c++\10.2.1\bits\char_traits.h ****       find(const char_type* __s, std::size_t __n, const char_type& __a);
 121:c:\program files\daisytoolchain\arm-none-eabi\include\c++\10.2.1\bits\char_traits.h **** 
 122:c:\program files\daisytoolchain\arm-none-eabi\include\c++\10.2.1\bits\char_traits.h ****       static _GLIBCXX20_CONSTEXPR char_type*
 123:c:\program files\daisytoolchain\arm-none-eabi\include\c++\10.2.1\bits\char_traits.h ****       move(char_type* __s1, const char_type* __s2, std::size_t __n);
 124:c:\program files\daisytoolchain\arm-none-eabi\include\c++\10.2.1\bits\char_traits.h **** 
 125:c:\program files\daisytoolchain\arm-none-eabi\include\c++\10.2.1\bits\char_traits.h ****       static _GLIBCXX20_CONSTEXPR char_type*
 126:c:\program files\daisytoolchain\arm-none-eabi\include\c++\10.2.1\bits\char_traits.h ****       copy(char_type* __s1, const char_type* __s2, std::size_t __n);
 127:c:\program files\daisytoolchain\arm-none-eabi\include\c++\10.2.1\bits\char_traits.h **** 
 128:c:\program files\daisytoolchain\arm-none-eabi\include\c++\10.2.1\bits\char_traits.h ****       static _GLIBCXX20_CONSTEXPR char_type*
 129:c:\program files\daisytoolchain\arm-none-eabi\include\c++\10.2.1\bits\char_traits.h ****       assign(char_type* __s, std::size_t __n, char_type __a);
 130:c:\program files\daisytoolchain\arm-none-eabi\include\c++\10.2.1\bits\char_traits.h **** 
 131:c:\program files\daisytoolchain\arm-none-eabi\include\c++\10.2.1\bits\char_traits.h ****       static _GLIBCXX_CONSTEXPR char_type
 132:c:\program files\daisytoolchain\arm-none-eabi\include\c++\10.2.1\bits\char_traits.h ****       to_char_type(const int_type& __c)
 133:c:\program files\daisytoolchain\arm-none-eabi\include\c++\10.2.1\bits\char_traits.h ****       { return static_cast<char_type>(__c); }
 134:c:\program files\daisytoolchain\arm-none-eabi\include\c++\10.2.1\bits\char_traits.h **** 
 135:c:\program files\daisytoolchain\arm-none-eabi\include\c++\10.2.1\bits\char_traits.h ****       static _GLIBCXX_CONSTEXPR int_type
 136:c:\program files\daisytoolchain\arm-none-eabi\include\c++\10.2.1\bits\char_traits.h ****       to_int_type(const char_type& __c)
 137:c:\program files\daisytoolchain\arm-none-eabi\include\c++\10.2.1\bits\char_traits.h ****       { return static_cast<int_type>(__c); }
 138:c:\program files\daisytoolchain\arm-none-eabi\include\c++\10.2.1\bits\char_traits.h **** 
 139:c:\program files\daisytoolchain\arm-none-eabi\include\c++\10.2.1\bits\char_traits.h ****       static _GLIBCXX_CONSTEXPR bool
 140:c:\program files\daisytoolchain\arm-none-eabi\include\c++\10.2.1\bits\char_traits.h ****       eq_int_type(const int_type& __c1, const int_type& __c2)
 141:c:\program files\daisytoolchain\arm-none-eabi\include\c++\10.2.1\bits\char_traits.h ****       { return __c1 == __c2; }
 142:c:\program files\daisytoolchain\arm-none-eabi\include\c++\10.2.1\bits\char_traits.h **** 
 143:c:\program files\daisytoolchain\arm-none-eabi\include\c++\10.2.1\bits\char_traits.h ****       static _GLIBCXX_CONSTEXPR int_type
 144:c:\program files\daisytoolchain\arm-none-eabi\include\c++\10.2.1\bits\char_traits.h ****       eof()
 145:c:\program files\daisytoolchain\arm-none-eabi\include\c++\10.2.1\bits\char_traits.h ****       { return static_cast<int_type>(_GLIBCXX_STDIO_EOF); }
ARM GAS  C:\Users\ryota\AppData\Local\Temp\ccNuOPtY.s 			page 26


 146:c:\program files\daisytoolchain\arm-none-eabi\include\c++\10.2.1\bits\char_traits.h **** 
 147:c:\program files\daisytoolchain\arm-none-eabi\include\c++\10.2.1\bits\char_traits.h ****       static _GLIBCXX_CONSTEXPR int_type
 148:c:\program files\daisytoolchain\arm-none-eabi\include\c++\10.2.1\bits\char_traits.h ****       not_eof(const int_type& __c)
 149:c:\program files\daisytoolchain\arm-none-eabi\include\c++\10.2.1\bits\char_traits.h ****       { return !eq_int_type(__c, eof()) ? __c : to_int_type(char_type()); }
 150:c:\program files\daisytoolchain\arm-none-eabi\include\c++\10.2.1\bits\char_traits.h ****     };
 151:c:\program files\daisytoolchain\arm-none-eabi\include\c++\10.2.1\bits\char_traits.h **** 
 152:c:\program files\daisytoolchain\arm-none-eabi\include\c++\10.2.1\bits\char_traits.h ****   template<typename _CharT>
 153:c:\program files\daisytoolchain\arm-none-eabi\include\c++\10.2.1\bits\char_traits.h ****     _GLIBCXX14_CONSTEXPR int
 154:c:\program files\daisytoolchain\arm-none-eabi\include\c++\10.2.1\bits\char_traits.h ****     char_traits<_CharT>::
 155:c:\program files\daisytoolchain\arm-none-eabi\include\c++\10.2.1\bits\char_traits.h ****     compare(const char_type* __s1, const char_type* __s2, std::size_t __n)
 156:c:\program files\daisytoolchain\arm-none-eabi\include\c++\10.2.1\bits\char_traits.h ****     {
 157:c:\program files\daisytoolchain\arm-none-eabi\include\c++\10.2.1\bits\char_traits.h ****       for (std::size_t __i = 0; __i < __n; ++__i)
 158:c:\program files\daisytoolchain\arm-none-eabi\include\c++\10.2.1\bits\char_traits.h **** 	if (lt(__s1[__i], __s2[__i]))
 159:c:\program files\daisytoolchain\arm-none-eabi\include\c++\10.2.1\bits\char_traits.h **** 	  return -1;
 160:c:\program files\daisytoolchain\arm-none-eabi\include\c++\10.2.1\bits\char_traits.h **** 	else if (lt(__s2[__i], __s1[__i]))
 161:c:\program files\daisytoolchain\arm-none-eabi\include\c++\10.2.1\bits\char_traits.h **** 	  return 1;
 162:c:\program files\daisytoolchain\arm-none-eabi\include\c++\10.2.1\bits\char_traits.h ****       return 0;
 163:c:\program files\daisytoolchain\arm-none-eabi\include\c++\10.2.1\bits\char_traits.h ****     }
 164:c:\program files\daisytoolchain\arm-none-eabi\include\c++\10.2.1\bits\char_traits.h **** 
 165:c:\program files\daisytoolchain\arm-none-eabi\include\c++\10.2.1\bits\char_traits.h ****   template<typename _CharT>
 166:c:\program files\daisytoolchain\arm-none-eabi\include\c++\10.2.1\bits\char_traits.h ****     _GLIBCXX14_CONSTEXPR std::size_t
 167:c:\program files\daisytoolchain\arm-none-eabi\include\c++\10.2.1\bits\char_traits.h ****     char_traits<_CharT>::
 168:c:\program files\daisytoolchain\arm-none-eabi\include\c++\10.2.1\bits\char_traits.h ****     length(const char_type* __p)
 169:c:\program files\daisytoolchain\arm-none-eabi\include\c++\10.2.1\bits\char_traits.h ****     {
 170:c:\program files\daisytoolchain\arm-none-eabi\include\c++\10.2.1\bits\char_traits.h ****       std::size_t __i = 0;
 171:c:\program files\daisytoolchain\arm-none-eabi\include\c++\10.2.1\bits\char_traits.h ****       while (!eq(__p[__i], char_type()))
 172:c:\program files\daisytoolchain\arm-none-eabi\include\c++\10.2.1\bits\char_traits.h ****         ++__i;
 173:c:\program files\daisytoolchain\arm-none-eabi\include\c++\10.2.1\bits\char_traits.h ****       return __i;
 174:c:\program files\daisytoolchain\arm-none-eabi\include\c++\10.2.1\bits\char_traits.h ****     }
 175:c:\program files\daisytoolchain\arm-none-eabi\include\c++\10.2.1\bits\char_traits.h **** 
 176:c:\program files\daisytoolchain\arm-none-eabi\include\c++\10.2.1\bits\char_traits.h ****   template<typename _CharT>
 177:c:\program files\daisytoolchain\arm-none-eabi\include\c++\10.2.1\bits\char_traits.h ****     _GLIBCXX14_CONSTEXPR const typename char_traits<_CharT>::char_type*
 178:c:\program files\daisytoolchain\arm-none-eabi\include\c++\10.2.1\bits\char_traits.h ****     char_traits<_CharT>::
 179:c:\program files\daisytoolchain\arm-none-eabi\include\c++\10.2.1\bits\char_traits.h ****     find(const char_type* __s, std::size_t __n, const char_type& __a)
 180:c:\program files\daisytoolchain\arm-none-eabi\include\c++\10.2.1\bits\char_traits.h ****     {
 181:c:\program files\daisytoolchain\arm-none-eabi\include\c++\10.2.1\bits\char_traits.h ****       for (std::size_t __i = 0; __i < __n; ++__i)
 182:c:\program files\daisytoolchain\arm-none-eabi\include\c++\10.2.1\bits\char_traits.h ****         if (eq(__s[__i], __a))
 183:c:\program files\daisytoolchain\arm-none-eabi\include\c++\10.2.1\bits\char_traits.h ****           return __s + __i;
 184:c:\program files\daisytoolchain\arm-none-eabi\include\c++\10.2.1\bits\char_traits.h ****       return 0;
 185:c:\program files\daisytoolchain\arm-none-eabi\include\c++\10.2.1\bits\char_traits.h ****     }
 186:c:\program files\daisytoolchain\arm-none-eabi\include\c++\10.2.1\bits\char_traits.h **** 
 187:c:\program files\daisytoolchain\arm-none-eabi\include\c++\10.2.1\bits\char_traits.h ****   template<typename _CharT>
 188:c:\program files\daisytoolchain\arm-none-eabi\include\c++\10.2.1\bits\char_traits.h ****     _GLIBCXX20_CONSTEXPR
 189:c:\program files\daisytoolchain\arm-none-eabi\include\c++\10.2.1\bits\char_traits.h ****     typename char_traits<_CharT>::char_type*
 190:c:\program files\daisytoolchain\arm-none-eabi\include\c++\10.2.1\bits\char_traits.h ****     char_traits<_CharT>::
 191:c:\program files\daisytoolchain\arm-none-eabi\include\c++\10.2.1\bits\char_traits.h ****     move(char_type* __s1, const char_type* __s2, std::size_t __n)
 192:c:\program files\daisytoolchain\arm-none-eabi\include\c++\10.2.1\bits\char_traits.h ****     {
 193:c:\program files\daisytoolchain\arm-none-eabi\include\c++\10.2.1\bits\char_traits.h ****       if (__n == 0)
 194:c:\program files\daisytoolchain\arm-none-eabi\include\c++\10.2.1\bits\char_traits.h **** 	return __s1;
 195:c:\program files\daisytoolchain\arm-none-eabi\include\c++\10.2.1\bits\char_traits.h **** #ifdef __cpp_lib_is_constant_evaluated
 196:c:\program files\daisytoolchain\arm-none-eabi\include\c++\10.2.1\bits\char_traits.h ****       if (std::is_constant_evaluated())
 197:c:\program files\daisytoolchain\arm-none-eabi\include\c++\10.2.1\bits\char_traits.h **** 	{
 198:c:\program files\daisytoolchain\arm-none-eabi\include\c++\10.2.1\bits\char_traits.h **** 	  if (__s1 > __s2 && __s1 < __s2 + __n)
 199:c:\program files\daisytoolchain\arm-none-eabi\include\c++\10.2.1\bits\char_traits.h **** 	    std::copy_backward(__s2, __s2 + __n, __s1);
 200:c:\program files\daisytoolchain\arm-none-eabi\include\c++\10.2.1\bits\char_traits.h **** 	  else
 201:c:\program files\daisytoolchain\arm-none-eabi\include\c++\10.2.1\bits\char_traits.h **** 	    std::copy(__s2, __s2 + __n, __s1);
 202:c:\program files\daisytoolchain\arm-none-eabi\include\c++\10.2.1\bits\char_traits.h **** 	  return __s1;
ARM GAS  C:\Users\ryota\AppData\Local\Temp\ccNuOPtY.s 			page 27


 203:c:\program files\daisytoolchain\arm-none-eabi\include\c++\10.2.1\bits\char_traits.h **** 	}
 204:c:\program files\daisytoolchain\arm-none-eabi\include\c++\10.2.1\bits\char_traits.h **** #endif
 205:c:\program files\daisytoolchain\arm-none-eabi\include\c++\10.2.1\bits\char_traits.h ****       return static_cast<_CharT*>(__builtin_memmove(__s1, __s2,
 206:c:\program files\daisytoolchain\arm-none-eabi\include\c++\10.2.1\bits\char_traits.h **** 						    __n * sizeof(char_type)));
 207:c:\program files\daisytoolchain\arm-none-eabi\include\c++\10.2.1\bits\char_traits.h ****     }
 208:c:\program files\daisytoolchain\arm-none-eabi\include\c++\10.2.1\bits\char_traits.h **** 
 209:c:\program files\daisytoolchain\arm-none-eabi\include\c++\10.2.1\bits\char_traits.h ****   template<typename _CharT>
 210:c:\program files\daisytoolchain\arm-none-eabi\include\c++\10.2.1\bits\char_traits.h ****     _GLIBCXX20_CONSTEXPR
 211:c:\program files\daisytoolchain\arm-none-eabi\include\c++\10.2.1\bits\char_traits.h ****     typename char_traits<_CharT>::char_type*
 212:c:\program files\daisytoolchain\arm-none-eabi\include\c++\10.2.1\bits\char_traits.h ****     char_traits<_CharT>::
 213:c:\program files\daisytoolchain\arm-none-eabi\include\c++\10.2.1\bits\char_traits.h ****     copy(char_type* __s1, const char_type* __s2, std::size_t __n)
 214:c:\program files\daisytoolchain\arm-none-eabi\include\c++\10.2.1\bits\char_traits.h ****     {
 215:c:\program files\daisytoolchain\arm-none-eabi\include\c++\10.2.1\bits\char_traits.h ****       // NB: Inline std::copy so no recursive dependencies.
 216:c:\program files\daisytoolchain\arm-none-eabi\include\c++\10.2.1\bits\char_traits.h ****       std::copy(__s2, __s2 + __n, __s1);
 217:c:\program files\daisytoolchain\arm-none-eabi\include\c++\10.2.1\bits\char_traits.h ****       return __s1;
 218:c:\program files\daisytoolchain\arm-none-eabi\include\c++\10.2.1\bits\char_traits.h ****     }
 219:c:\program files\daisytoolchain\arm-none-eabi\include\c++\10.2.1\bits\char_traits.h **** 
 220:c:\program files\daisytoolchain\arm-none-eabi\include\c++\10.2.1\bits\char_traits.h ****   template<typename _CharT>
 221:c:\program files\daisytoolchain\arm-none-eabi\include\c++\10.2.1\bits\char_traits.h ****     _GLIBCXX20_CONSTEXPR
 222:c:\program files\daisytoolchain\arm-none-eabi\include\c++\10.2.1\bits\char_traits.h ****     typename char_traits<_CharT>::char_type*
 223:c:\program files\daisytoolchain\arm-none-eabi\include\c++\10.2.1\bits\char_traits.h ****     char_traits<_CharT>::
 224:c:\program files\daisytoolchain\arm-none-eabi\include\c++\10.2.1\bits\char_traits.h ****     assign(char_type* __s, std::size_t __n, char_type __a)
 225:c:\program files\daisytoolchain\arm-none-eabi\include\c++\10.2.1\bits\char_traits.h ****     {
 226:c:\program files\daisytoolchain\arm-none-eabi\include\c++\10.2.1\bits\char_traits.h ****       // NB: Inline std::fill_n so no recursive dependencies.
 227:c:\program files\daisytoolchain\arm-none-eabi\include\c++\10.2.1\bits\char_traits.h ****       std::fill_n(__s, __n, __a);
 228:c:\program files\daisytoolchain\arm-none-eabi\include\c++\10.2.1\bits\char_traits.h ****       return __s;
 229:c:\program files\daisytoolchain\arm-none-eabi\include\c++\10.2.1\bits\char_traits.h ****     }
 230:c:\program files\daisytoolchain\arm-none-eabi\include\c++\10.2.1\bits\char_traits.h **** 
 231:c:\program files\daisytoolchain\arm-none-eabi\include\c++\10.2.1\bits\char_traits.h **** _GLIBCXX_END_NAMESPACE_VERSION
 232:c:\program files\daisytoolchain\arm-none-eabi\include\c++\10.2.1\bits\char_traits.h **** } // namespace
 233:c:\program files\daisytoolchain\arm-none-eabi\include\c++\10.2.1\bits\char_traits.h **** 
 234:c:\program files\daisytoolchain\arm-none-eabi\include\c++\10.2.1\bits\char_traits.h **** namespace std _GLIBCXX_VISIBILITY(default)
 235:c:\program files\daisytoolchain\arm-none-eabi\include\c++\10.2.1\bits\char_traits.h **** {
 236:c:\program files\daisytoolchain\arm-none-eabi\include\c++\10.2.1\bits\char_traits.h **** _GLIBCXX_BEGIN_NAMESPACE_VERSION
 237:c:\program files\daisytoolchain\arm-none-eabi\include\c++\10.2.1\bits\char_traits.h **** 
 238:c:\program files\daisytoolchain\arm-none-eabi\include\c++\10.2.1\bits\char_traits.h **** #if __cplusplus >= 201703L
 239:c:\program files\daisytoolchain\arm-none-eabi\include\c++\10.2.1\bits\char_traits.h **** #define __cpp_lib_constexpr_char_traits 201611
 240:c:\program files\daisytoolchain\arm-none-eabi\include\c++\10.2.1\bits\char_traits.h **** 
 241:c:\program files\daisytoolchain\arm-none-eabi\include\c++\10.2.1\bits\char_traits.h ****   /**
 242:c:\program files\daisytoolchain\arm-none-eabi\include\c++\10.2.1\bits\char_traits.h ****    *  @brief Determine whether the characters of a NULL-terminated
 243:c:\program files\daisytoolchain\arm-none-eabi\include\c++\10.2.1\bits\char_traits.h ****    *  string are known at compile time.
 244:c:\program files\daisytoolchain\arm-none-eabi\include\c++\10.2.1\bits\char_traits.h ****    *  @param  __s  The string.
 245:c:\program files\daisytoolchain\arm-none-eabi\include\c++\10.2.1\bits\char_traits.h ****    *
 246:c:\program files\daisytoolchain\arm-none-eabi\include\c++\10.2.1\bits\char_traits.h ****    *  Assumes that _CharT is a built-in character type.
 247:c:\program files\daisytoolchain\arm-none-eabi\include\c++\10.2.1\bits\char_traits.h ****    */
 248:c:\program files\daisytoolchain\arm-none-eabi\include\c++\10.2.1\bits\char_traits.h ****   template<typename _CharT>
 249:c:\program files\daisytoolchain\arm-none-eabi\include\c++\10.2.1\bits\char_traits.h ****     static _GLIBCXX_ALWAYS_INLINE constexpr bool
 250:c:\program files\daisytoolchain\arm-none-eabi\include\c++\10.2.1\bits\char_traits.h ****     __constant_string_p(const _CharT* __s)
 251:c:\program files\daisytoolchain\arm-none-eabi\include\c++\10.2.1\bits\char_traits.h ****     {
 252:c:\program files\daisytoolchain\arm-none-eabi\include\c++\10.2.1\bits\char_traits.h **** #ifdef _GLIBCXX_HAVE_BUILTIN_IS_CONSTANT_EVALUATED
 253:c:\program files\daisytoolchain\arm-none-eabi\include\c++\10.2.1\bits\char_traits.h ****       (void) __s;
 254:c:\program files\daisytoolchain\arm-none-eabi\include\c++\10.2.1\bits\char_traits.h ****       // In constexpr contexts all strings should be constant.
 255:c:\program files\daisytoolchain\arm-none-eabi\include\c++\10.2.1\bits\char_traits.h ****       return __builtin_is_constant_evaluated();
 256:c:\program files\daisytoolchain\arm-none-eabi\include\c++\10.2.1\bits\char_traits.h **** #else
 257:c:\program files\daisytoolchain\arm-none-eabi\include\c++\10.2.1\bits\char_traits.h ****       while (__builtin_constant_p(*__s) && *__s)
 258:c:\program files\daisytoolchain\arm-none-eabi\include\c++\10.2.1\bits\char_traits.h **** 	__s++;
 259:c:\program files\daisytoolchain\arm-none-eabi\include\c++\10.2.1\bits\char_traits.h ****       return __builtin_constant_p(*__s);
ARM GAS  C:\Users\ryota\AppData\Local\Temp\ccNuOPtY.s 			page 28


 260:c:\program files\daisytoolchain\arm-none-eabi\include\c++\10.2.1\bits\char_traits.h **** #endif
 261:c:\program files\daisytoolchain\arm-none-eabi\include\c++\10.2.1\bits\char_traits.h ****     }
 262:c:\program files\daisytoolchain\arm-none-eabi\include\c++\10.2.1\bits\char_traits.h **** 
 263:c:\program files\daisytoolchain\arm-none-eabi\include\c++\10.2.1\bits\char_traits.h ****   /**
 264:c:\program files\daisytoolchain\arm-none-eabi\include\c++\10.2.1\bits\char_traits.h ****    *  @brief Determine whether the characters of a character array are
 265:c:\program files\daisytoolchain\arm-none-eabi\include\c++\10.2.1\bits\char_traits.h ****    *  known at compile time.
 266:c:\program files\daisytoolchain\arm-none-eabi\include\c++\10.2.1\bits\char_traits.h ****    *  @param  __a  The character array.
 267:c:\program files\daisytoolchain\arm-none-eabi\include\c++\10.2.1\bits\char_traits.h ****    *  @param  __n  Number of characters.
 268:c:\program files\daisytoolchain\arm-none-eabi\include\c++\10.2.1\bits\char_traits.h ****    *
 269:c:\program files\daisytoolchain\arm-none-eabi\include\c++\10.2.1\bits\char_traits.h ****    *  Assumes that _CharT is a built-in character type.
 270:c:\program files\daisytoolchain\arm-none-eabi\include\c++\10.2.1\bits\char_traits.h ****    */
 271:c:\program files\daisytoolchain\arm-none-eabi\include\c++\10.2.1\bits\char_traits.h ****   template<typename _CharT>
 272:c:\program files\daisytoolchain\arm-none-eabi\include\c++\10.2.1\bits\char_traits.h ****     static _GLIBCXX_ALWAYS_INLINE constexpr bool
 273:c:\program files\daisytoolchain\arm-none-eabi\include\c++\10.2.1\bits\char_traits.h ****     __constant_char_array_p(const _CharT* __a, size_t __n)
 274:c:\program files\daisytoolchain\arm-none-eabi\include\c++\10.2.1\bits\char_traits.h ****     {
 275:c:\program files\daisytoolchain\arm-none-eabi\include\c++\10.2.1\bits\char_traits.h **** #ifdef _GLIBCXX_HAVE_BUILTIN_IS_CONSTANT_EVALUATED
 276:c:\program files\daisytoolchain\arm-none-eabi\include\c++\10.2.1\bits\char_traits.h ****       (void) __a;
 277:c:\program files\daisytoolchain\arm-none-eabi\include\c++\10.2.1\bits\char_traits.h ****       (void) __n;
 278:c:\program files\daisytoolchain\arm-none-eabi\include\c++\10.2.1\bits\char_traits.h ****       // In constexpr contexts all character arrays should be constant.
 279:c:\program files\daisytoolchain\arm-none-eabi\include\c++\10.2.1\bits\char_traits.h ****       return __builtin_is_constant_evaluated();
 280:c:\program files\daisytoolchain\arm-none-eabi\include\c++\10.2.1\bits\char_traits.h **** #else
 281:c:\program files\daisytoolchain\arm-none-eabi\include\c++\10.2.1\bits\char_traits.h ****       size_t __i = 0;
 282:c:\program files\daisytoolchain\arm-none-eabi\include\c++\10.2.1\bits\char_traits.h ****       while (__i < __n && __builtin_constant_p(__a[__i]))
 283:c:\program files\daisytoolchain\arm-none-eabi\include\c++\10.2.1\bits\char_traits.h **** 	__i++;
 284:c:\program files\daisytoolchain\arm-none-eabi\include\c++\10.2.1\bits\char_traits.h ****       return __i == __n;
 285:c:\program files\daisytoolchain\arm-none-eabi\include\c++\10.2.1\bits\char_traits.h **** #endif
 286:c:\program files\daisytoolchain\arm-none-eabi\include\c++\10.2.1\bits\char_traits.h ****     }
 287:c:\program files\daisytoolchain\arm-none-eabi\include\c++\10.2.1\bits\char_traits.h **** #endif
 288:c:\program files\daisytoolchain\arm-none-eabi\include\c++\10.2.1\bits\char_traits.h **** 
 289:c:\program files\daisytoolchain\arm-none-eabi\include\c++\10.2.1\bits\char_traits.h ****   // 21.1
 290:c:\program files\daisytoolchain\arm-none-eabi\include\c++\10.2.1\bits\char_traits.h ****   /**
 291:c:\program files\daisytoolchain\arm-none-eabi\include\c++\10.2.1\bits\char_traits.h ****    *  @brief  Basis for explicit traits specializations.
 292:c:\program files\daisytoolchain\arm-none-eabi\include\c++\10.2.1\bits\char_traits.h ****    *
 293:c:\program files\daisytoolchain\arm-none-eabi\include\c++\10.2.1\bits\char_traits.h ****    *  @note  For any given actual character type, this definition is
 294:c:\program files\daisytoolchain\arm-none-eabi\include\c++\10.2.1\bits\char_traits.h ****    *  probably wrong.  Since this is just a thin wrapper around
 295:c:\program files\daisytoolchain\arm-none-eabi\include\c++\10.2.1\bits\char_traits.h ****    *  __gnu_cxx::char_traits, it is possible to achieve a more
 296:c:\program files\daisytoolchain\arm-none-eabi\include\c++\10.2.1\bits\char_traits.h ****    *  appropriate definition by specializing __gnu_cxx::char_traits.
 297:c:\program files\daisytoolchain\arm-none-eabi\include\c++\10.2.1\bits\char_traits.h ****    *
 298:c:\program files\daisytoolchain\arm-none-eabi\include\c++\10.2.1\bits\char_traits.h ****    *  See https://gcc.gnu.org/onlinedocs/libstdc++/manual/strings.html#strings.string.character_typ
 299:c:\program files\daisytoolchain\arm-none-eabi\include\c++\10.2.1\bits\char_traits.h ****    *  for advice on how to make use of this class for @a unusual character
 300:c:\program files\daisytoolchain\arm-none-eabi\include\c++\10.2.1\bits\char_traits.h ****    *  types. Also, check out include/ext/pod_char_traits.h.
 301:c:\program files\daisytoolchain\arm-none-eabi\include\c++\10.2.1\bits\char_traits.h ****   */
 302:c:\program files\daisytoolchain\arm-none-eabi\include\c++\10.2.1\bits\char_traits.h ****   template<class _CharT>
 303:c:\program files\daisytoolchain\arm-none-eabi\include\c++\10.2.1\bits\char_traits.h ****     struct char_traits : public __gnu_cxx::char_traits<_CharT>
 304:c:\program files\daisytoolchain\arm-none-eabi\include\c++\10.2.1\bits\char_traits.h ****     { };
 305:c:\program files\daisytoolchain\arm-none-eabi\include\c++\10.2.1\bits\char_traits.h **** 
 306:c:\program files\daisytoolchain\arm-none-eabi\include\c++\10.2.1\bits\char_traits.h **** 
 307:c:\program files\daisytoolchain\arm-none-eabi\include\c++\10.2.1\bits\char_traits.h ****   /// 21.1.3.1  char_traits specializations
 308:c:\program files\daisytoolchain\arm-none-eabi\include\c++\10.2.1\bits\char_traits.h ****   template<>
 309:c:\program files\daisytoolchain\arm-none-eabi\include\c++\10.2.1\bits\char_traits.h ****     struct char_traits<char>
 310:c:\program files\daisytoolchain\arm-none-eabi\include\c++\10.2.1\bits\char_traits.h ****     {
 311:c:\program files\daisytoolchain\arm-none-eabi\include\c++\10.2.1\bits\char_traits.h ****       typedef char              char_type;
 312:c:\program files\daisytoolchain\arm-none-eabi\include\c++\10.2.1\bits\char_traits.h ****       typedef int               int_type;
 313:c:\program files\daisytoolchain\arm-none-eabi\include\c++\10.2.1\bits\char_traits.h ****       typedef streampos         pos_type;
 314:c:\program files\daisytoolchain\arm-none-eabi\include\c++\10.2.1\bits\char_traits.h ****       typedef streamoff         off_type;
 315:c:\program files\daisytoolchain\arm-none-eabi\include\c++\10.2.1\bits\char_traits.h ****       typedef mbstate_t         state_type;
 316:c:\program files\daisytoolchain\arm-none-eabi\include\c++\10.2.1\bits\char_traits.h **** #if __cpp_lib_three_way_comparison
ARM GAS  C:\Users\ryota\AppData\Local\Temp\ccNuOPtY.s 			page 29


 317:c:\program files\daisytoolchain\arm-none-eabi\include\c++\10.2.1\bits\char_traits.h ****       using comparison_category = strong_ordering;
 318:c:\program files\daisytoolchain\arm-none-eabi\include\c++\10.2.1\bits\char_traits.h **** #endif
 319:c:\program files\daisytoolchain\arm-none-eabi\include\c++\10.2.1\bits\char_traits.h **** 
 320:c:\program files\daisytoolchain\arm-none-eabi\include\c++\10.2.1\bits\char_traits.h ****       static _GLIBCXX17_CONSTEXPR void
 321:c:\program files\daisytoolchain\arm-none-eabi\include\c++\10.2.1\bits\char_traits.h ****       assign(char_type& __c1, const char_type& __c2) _GLIBCXX_NOEXCEPT
 249              		.loc 6 321 7 is_stmt 1 view .LVU52
 250              	.LBB538:
 322:c:\program files\daisytoolchain\arm-none-eabi\include\c++\10.2.1\bits\char_traits.h ****       { __c1 = __c2; }
 251              		.loc 6 322 9 view .LVU53
 252              		.loc 6 322 16 is_stmt 0 view .LVU54
 253 001a 3378     		ldrb	r3, [r6]	@ zero_extendqisi2
 254              		.loc 6 322 14 view .LVU55
 255 001c 0370     		strb	r3, [r0]
 256              	.LBE538:
 257              	.LBE537:
 258              	.LBE548:
 259              	.LBE552:
 260              	.LBE557:
 261              	.LBB558:
 262              	.LBB559:
 263              	.LBB560:
 264              	.LBB561:
 265 001e 0023     		movs	r3, #0
 266              	.LBE561:
 267              	.LBE560:
 268              	.LBE559:
 269              	.LBE558:
 218:c:\program files\daisytoolchain\arm-none-eabi\include\c++\10.2.1\bits\basic_string.tcc **** 	  {
 219:c:\program files\daisytoolchain\arm-none-eabi\include\c++\10.2.1\bits\basic_string.tcc **** 	    _M_data(_M_create(__dnew, size_type(0)));
 220:c:\program files\daisytoolchain\arm-none-eabi\include\c++\10.2.1\bits\basic_string.tcc **** 	    _M_capacity(__dnew);
 221:c:\program files\daisytoolchain\arm-none-eabi\include\c++\10.2.1\bits\basic_string.tcc **** 	  }
 222:c:\program files\daisytoolchain\arm-none-eabi\include\c++\10.2.1\bits\basic_string.tcc **** 
 223:c:\program files\daisytoolchain\arm-none-eabi\include\c++\10.2.1\bits\basic_string.tcc **** 	// Check for out_of_range and length_error exceptions.
 224:c:\program files\daisytoolchain\arm-none-eabi\include\c++\10.2.1\bits\basic_string.tcc **** 	__try
 225:c:\program files\daisytoolchain\arm-none-eabi\include\c++\10.2.1\bits\basic_string.tcc **** 	  { this->_S_copy_chars(_M_data(), __beg, __end); }
 226:c:\program files\daisytoolchain\arm-none-eabi\include\c++\10.2.1\bits\basic_string.tcc **** 	__catch(...)
 227:c:\program files\daisytoolchain\arm-none-eabi\include\c++\10.2.1\bits\basic_string.tcc **** 	  {
 228:c:\program files\daisytoolchain\arm-none-eabi\include\c++\10.2.1\bits\basic_string.tcc **** 	    _M_dispose();
 229:c:\program files\daisytoolchain\arm-none-eabi\include\c++\10.2.1\bits\basic_string.tcc **** 	    __throw_exception_again;
 230:c:\program files\daisytoolchain\arm-none-eabi\include\c++\10.2.1\bits\basic_string.tcc **** 	  }
 231:c:\program files\daisytoolchain\arm-none-eabi\include\c++\10.2.1\bits\basic_string.tcc **** 
 232:c:\program files\daisytoolchain\arm-none-eabi\include\c++\10.2.1\bits\basic_string.tcc **** 	_M_set_length(__dnew);
 270              		.loc 3 232 15 view .LVU56
 271 0020 019C     		ldr	r4, [sp, #4]
 272              	.LVL15:
 273              	.LBB592:
 274              	.LBI558:
 214:c:\program files\daisytoolchain\arm-none-eabi\include\c++\10.2.1\bits\basic_string.h ****       {
 275              		.loc 5 214 7 is_stmt 1 view .LVU57
 276              	.LBB588:
 277              	.LBB567:
 278              	.LBI567:
 182:c:\program files\daisytoolchain\arm-none-eabi\include\c++\10.2.1\bits\basic_string.h ****       { _M_string_length = __length; }
 279              		.loc 5 182 7 view .LVU58
 280              	.LBE567:
 281              	.LBB571:
 282              	.LBB572:
ARM GAS  C:\Users\ryota\AppData\Local\Temp\ccNuOPtY.s 			page 30


 187:c:\program files\daisytoolchain\arm-none-eabi\include\c++\10.2.1\bits\basic_string.h **** 
 283              		.loc 5 187 28 is_stmt 0 view .LVU59
 284 0022 2868     		ldr	r0, [r5]
 285              	.LBE572:
 286              	.LBE571:
 287              	.LBB574:
 288              	.LBB568:
 183:c:\program files\daisytoolchain\arm-none-eabi\include\c++\10.2.1\bits\basic_string.h **** 
 289              		.loc 5 183 26 view .LVU60
 290 0024 6C60     		str	r4, [r5, #4]
 291              	.LVL16:
 183:c:\program files\daisytoolchain\arm-none-eabi\include\c++\10.2.1\bits\basic_string.h **** 
 292              		.loc 5 183 26 view .LVU61
 293              	.LBE568:
 294              	.LBE574:
 295              	.LBB575:
 296              	.LBI571:
 186:c:\program files\daisytoolchain\arm-none-eabi\include\c++\10.2.1\bits\basic_string.h ****       { return _M_dataplus._M_p; }
 297              		.loc 5 186 7 is_stmt 1 view .LVU62
 186:c:\program files\daisytoolchain\arm-none-eabi\include\c++\10.2.1\bits\basic_string.h ****       { return _M_dataplus._M_p; }
 298              		.loc 5 186 7 is_stmt 0 view .LVU63
 299              	.LBE575:
 300              	.LBB576:
 301              	.LBI560:
 321:c:\program files\daisytoolchain\arm-none-eabi\include\c++\10.2.1\bits\char_traits.h ****       { __c1 = __c2; }
 302              		.loc 6 321 7 is_stmt 1 view .LVU64
 303              	.LBB562:
 304              		.loc 6 322 9 view .LVU65
 305              		.loc 6 322 14 is_stmt 0 view .LVU66
 306 0026 0355     		strb	r3, [r0, r4]
 307              	.LVL17:
 308              		.loc 6 322 14 view .LVU67
 309              	.LBE562:
 310              	.LBE576:
 311              	.LBE588:
 312              	.LBE592:
 233:c:\program files\daisytoolchain\arm-none-eabi\include\c++\10.2.1\bits\basic_string.tcc ****       }
 313              		.loc 3 233 7 view .LVU68
 314 0028 02B0     		add	sp, sp, #8
 315              		.cfi_remember_state
 316              		.cfi_def_cfa_offset 16
 317              		@ sp needed
 318 002a 70BD     		pop	{r4, r5, r6, pc}
 319              	.LVL18:
 320              	.L33:
 321              		.cfi_restore_state
 322              	.LBB593:
 323              	.LBB553:
 324              	.LBB549:
 325              	.LBB539:
 326              	.LBI539:
 346:c:\program files\daisytoolchain\arm-none-eabi\include\c++\10.2.1\bits\basic_string.h ****       {
 327              		.loc 5 346 7 is_stmt 1 view .LVU69
 328              	.LBB540:
 329              	.LBI540:
 323:c:\program files\daisytoolchain\arm-none-eabi\include\c++\10.2.1\bits\char_traits.h **** 
 324:c:\program files\daisytoolchain\arm-none-eabi\include\c++\10.2.1\bits\char_traits.h ****       static _GLIBCXX_CONSTEXPR bool
ARM GAS  C:\Users\ryota\AppData\Local\Temp\ccNuOPtY.s 			page 31


 325:c:\program files\daisytoolchain\arm-none-eabi\include\c++\10.2.1\bits\char_traits.h ****       eq(const char_type& __c1, const char_type& __c2) _GLIBCXX_NOEXCEPT
 326:c:\program files\daisytoolchain\arm-none-eabi\include\c++\10.2.1\bits\char_traits.h ****       { return __c1 == __c2; }
 327:c:\program files\daisytoolchain\arm-none-eabi\include\c++\10.2.1\bits\char_traits.h **** 
 328:c:\program files\daisytoolchain\arm-none-eabi\include\c++\10.2.1\bits\char_traits.h ****       static _GLIBCXX_CONSTEXPR bool
 329:c:\program files\daisytoolchain\arm-none-eabi\include\c++\10.2.1\bits\char_traits.h ****       lt(const char_type& __c1, const char_type& __c2) _GLIBCXX_NOEXCEPT
 330:c:\program files\daisytoolchain\arm-none-eabi\include\c++\10.2.1\bits\char_traits.h ****       {
 331:c:\program files\daisytoolchain\arm-none-eabi\include\c++\10.2.1\bits\char_traits.h **** 	// LWG 467.
 332:c:\program files\daisytoolchain\arm-none-eabi\include\c++\10.2.1\bits\char_traits.h **** 	return (static_cast<unsigned char>(__c1)
 333:c:\program files\daisytoolchain\arm-none-eabi\include\c++\10.2.1\bits\char_traits.h **** 		< static_cast<unsigned char>(__c2));
 334:c:\program files\daisytoolchain\arm-none-eabi\include\c++\10.2.1\bits\char_traits.h ****       }
 335:c:\program files\daisytoolchain\arm-none-eabi\include\c++\10.2.1\bits\char_traits.h **** 
 336:c:\program files\daisytoolchain\arm-none-eabi\include\c++\10.2.1\bits\char_traits.h ****       static _GLIBCXX17_CONSTEXPR int
 337:c:\program files\daisytoolchain\arm-none-eabi\include\c++\10.2.1\bits\char_traits.h ****       compare(const char_type* __s1, const char_type* __s2, size_t __n)
 338:c:\program files\daisytoolchain\arm-none-eabi\include\c++\10.2.1\bits\char_traits.h ****       {
 339:c:\program files\daisytoolchain\arm-none-eabi\include\c++\10.2.1\bits\char_traits.h **** 	if (__n == 0)
 340:c:\program files\daisytoolchain\arm-none-eabi\include\c++\10.2.1\bits\char_traits.h **** 	  return 0;
 341:c:\program files\daisytoolchain\arm-none-eabi\include\c++\10.2.1\bits\char_traits.h **** #if __cplusplus >= 201703L
 342:c:\program files\daisytoolchain\arm-none-eabi\include\c++\10.2.1\bits\char_traits.h **** 	if (__builtin_constant_p(__n)
 343:c:\program files\daisytoolchain\arm-none-eabi\include\c++\10.2.1\bits\char_traits.h **** 	    && __constant_char_array_p(__s1, __n)
 344:c:\program files\daisytoolchain\arm-none-eabi\include\c++\10.2.1\bits\char_traits.h **** 	    && __constant_char_array_p(__s2, __n))
 345:c:\program files\daisytoolchain\arm-none-eabi\include\c++\10.2.1\bits\char_traits.h **** 	  return __gnu_cxx::char_traits<char_type>::compare(__s1, __s2, __n);
 346:c:\program files\daisytoolchain\arm-none-eabi\include\c++\10.2.1\bits\char_traits.h **** #endif
 347:c:\program files\daisytoolchain\arm-none-eabi\include\c++\10.2.1\bits\char_traits.h **** 	return __builtin_memcmp(__s1, __s2, __n);
 348:c:\program files\daisytoolchain\arm-none-eabi\include\c++\10.2.1\bits\char_traits.h ****       }
 349:c:\program files\daisytoolchain\arm-none-eabi\include\c++\10.2.1\bits\char_traits.h **** 
 350:c:\program files\daisytoolchain\arm-none-eabi\include\c++\10.2.1\bits\char_traits.h ****       static _GLIBCXX17_CONSTEXPR size_t
 351:c:\program files\daisytoolchain\arm-none-eabi\include\c++\10.2.1\bits\char_traits.h ****       length(const char_type* __s)
 352:c:\program files\daisytoolchain\arm-none-eabi\include\c++\10.2.1\bits\char_traits.h ****       {
 353:c:\program files\daisytoolchain\arm-none-eabi\include\c++\10.2.1\bits\char_traits.h **** #if __cplusplus >= 201703L
 354:c:\program files\daisytoolchain\arm-none-eabi\include\c++\10.2.1\bits\char_traits.h **** 	if (__constant_string_p(__s))
 355:c:\program files\daisytoolchain\arm-none-eabi\include\c++\10.2.1\bits\char_traits.h **** 	  return __gnu_cxx::char_traits<char_type>::length(__s);
 356:c:\program files\daisytoolchain\arm-none-eabi\include\c++\10.2.1\bits\char_traits.h **** #endif
 357:c:\program files\daisytoolchain\arm-none-eabi\include\c++\10.2.1\bits\char_traits.h **** 	return __builtin_strlen(__s);
 358:c:\program files\daisytoolchain\arm-none-eabi\include\c++\10.2.1\bits\char_traits.h ****       }
 359:c:\program files\daisytoolchain\arm-none-eabi\include\c++\10.2.1\bits\char_traits.h **** 
 360:c:\program files\daisytoolchain\arm-none-eabi\include\c++\10.2.1\bits\char_traits.h ****       static _GLIBCXX17_CONSTEXPR const char_type*
 361:c:\program files\daisytoolchain\arm-none-eabi\include\c++\10.2.1\bits\char_traits.h ****       find(const char_type* __s, size_t __n, const char_type& __a)
 362:c:\program files\daisytoolchain\arm-none-eabi\include\c++\10.2.1\bits\char_traits.h ****       {
 363:c:\program files\daisytoolchain\arm-none-eabi\include\c++\10.2.1\bits\char_traits.h **** 	if (__n == 0)
 364:c:\program files\daisytoolchain\arm-none-eabi\include\c++\10.2.1\bits\char_traits.h **** 	  return 0;
 365:c:\program files\daisytoolchain\arm-none-eabi\include\c++\10.2.1\bits\char_traits.h **** #if __cplusplus >= 201703L
 366:c:\program files\daisytoolchain\arm-none-eabi\include\c++\10.2.1\bits\char_traits.h **** 	if (__builtin_constant_p(__n)
 367:c:\program files\daisytoolchain\arm-none-eabi\include\c++\10.2.1\bits\char_traits.h **** 	    && __builtin_constant_p(__a)
 368:c:\program files\daisytoolchain\arm-none-eabi\include\c++\10.2.1\bits\char_traits.h **** 	    && __constant_char_array_p(__s, __n))
 369:c:\program files\daisytoolchain\arm-none-eabi\include\c++\10.2.1\bits\char_traits.h **** 	  return __gnu_cxx::char_traits<char_type>::find(__s, __n, __a);
 370:c:\program files\daisytoolchain\arm-none-eabi\include\c++\10.2.1\bits\char_traits.h **** #endif
 371:c:\program files\daisytoolchain\arm-none-eabi\include\c++\10.2.1\bits\char_traits.h **** 	return static_cast<const char_type*>(__builtin_memchr(__s, __a, __n));
 372:c:\program files\daisytoolchain\arm-none-eabi\include\c++\10.2.1\bits\char_traits.h ****       }
 373:c:\program files\daisytoolchain\arm-none-eabi\include\c++\10.2.1\bits\char_traits.h **** 
 374:c:\program files\daisytoolchain\arm-none-eabi\include\c++\10.2.1\bits\char_traits.h ****       static _GLIBCXX20_CONSTEXPR char_type*
 375:c:\program files\daisytoolchain\arm-none-eabi\include\c++\10.2.1\bits\char_traits.h ****       move(char_type* __s1, const char_type* __s2, size_t __n)
 376:c:\program files\daisytoolchain\arm-none-eabi\include\c++\10.2.1\bits\char_traits.h ****       {
 377:c:\program files\daisytoolchain\arm-none-eabi\include\c++\10.2.1\bits\char_traits.h **** 	if (__n == 0)
 378:c:\program files\daisytoolchain\arm-none-eabi\include\c++\10.2.1\bits\char_traits.h **** 	  return __s1;
 379:c:\program files\daisytoolchain\arm-none-eabi\include\c++\10.2.1\bits\char_traits.h **** #ifdef __cpp_lib_is_constant_evaluated
 380:c:\program files\daisytoolchain\arm-none-eabi\include\c++\10.2.1\bits\char_traits.h **** 	if (std::is_constant_evaluated())
 381:c:\program files\daisytoolchain\arm-none-eabi\include\c++\10.2.1\bits\char_traits.h **** 	  return __gnu_cxx::char_traits<char_type>::move(__s1, __s2, __n);
ARM GAS  C:\Users\ryota\AppData\Local\Temp\ccNuOPtY.s 			page 32


 382:c:\program files\daisytoolchain\arm-none-eabi\include\c++\10.2.1\bits\char_traits.h **** #endif
 383:c:\program files\daisytoolchain\arm-none-eabi\include\c++\10.2.1\bits\char_traits.h **** 	return static_cast<char_type*>(__builtin_memmove(__s1, __s2, __n));
 384:c:\program files\daisytoolchain\arm-none-eabi\include\c++\10.2.1\bits\char_traits.h ****       }
 385:c:\program files\daisytoolchain\arm-none-eabi\include\c++\10.2.1\bits\char_traits.h **** 
 386:c:\program files\daisytoolchain\arm-none-eabi\include\c++\10.2.1\bits\char_traits.h ****       static _GLIBCXX20_CONSTEXPR char_type*
 387:c:\program files\daisytoolchain\arm-none-eabi\include\c++\10.2.1\bits\char_traits.h ****       copy(char_type* __s1, const char_type* __s2, size_t __n)
 330              		.loc 6 387 7 view .LVU70
 331              	.LBB541:
 388:c:\program files\daisytoolchain\arm-none-eabi\include\c++\10.2.1\bits\char_traits.h ****       {
 389:c:\program files\daisytoolchain\arm-none-eabi\include\c++\10.2.1\bits\char_traits.h **** 	if (__n == 0)
 332              		.loc 6 389 2 view .LVU71
 333 002c 64B9     		cbnz	r4, .L32
 334              	.LVL19:
 335              		.loc 6 389 2 is_stmt 0 view .LVU72
 336              	.LBE541:
 337              	.LBE540:
 338              	.LBE539:
 339              	.LBE549:
 340              	.LBE553:
 341              	.LBE593:
 342              	.LBB594:
 214:c:\program files\daisytoolchain\arm-none-eabi\include\c++\10.2.1\bits\basic_string.h ****       {
 343              		.loc 5 214 7 is_stmt 1 view .LVU73
 344              	.LBB589:
 345              	.LBB577:
 182:c:\program files\daisytoolchain\arm-none-eabi\include\c++\10.2.1\bits\basic_string.h ****       { _M_string_length = __length; }
 346              		.loc 5 182 7 view .LVU74
 347              	.LBE577:
 348              	.LBB578:
 349              	.LBB563:
 322:c:\program files\daisytoolchain\arm-none-eabi\include\c++\10.2.1\bits\char_traits.h **** 
 350              		.loc 6 322 14 is_stmt 0 view .LVU75
 351 002e 0023     		movs	r3, #0
 352              	.LBE563:
 353              	.LBE578:
 354              	.LBB579:
 355              	.LBB569:
 183:c:\program files\daisytoolchain\arm-none-eabi\include\c++\10.2.1\bits\basic_string.h **** 
 356              		.loc 5 183 26 view .LVU76
 357 0030 6C60     		str	r4, [r5, #4]
 358              	.LVL20:
 183:c:\program files\daisytoolchain\arm-none-eabi\include\c++\10.2.1\bits\basic_string.h **** 
 359              		.loc 5 183 26 view .LVU77
 360              	.LBE569:
 361              	.LBE579:
 362              	.LBB580:
 186:c:\program files\daisytoolchain\arm-none-eabi\include\c++\10.2.1\bits\basic_string.h ****       { return _M_dataplus._M_p; }
 363              		.loc 5 186 7 is_stmt 1 view .LVU78
 186:c:\program files\daisytoolchain\arm-none-eabi\include\c++\10.2.1\bits\basic_string.h ****       { return _M_dataplus._M_p; }
 364              		.loc 5 186 7 is_stmt 0 view .LVU79
 365              	.LBE580:
 366              	.LBB581:
 321:c:\program files\daisytoolchain\arm-none-eabi\include\c++\10.2.1\bits\char_traits.h ****       { __c1 = __c2; }
 367              		.loc 6 321 7 is_stmt 1 view .LVU80
 368              	.LBB564:
 322:c:\program files\daisytoolchain\arm-none-eabi\include\c++\10.2.1\bits\char_traits.h **** 
 369              		.loc 6 322 9 view .LVU81
ARM GAS  C:\Users\ryota\AppData\Local\Temp\ccNuOPtY.s 			page 33


 322:c:\program files\daisytoolchain\arm-none-eabi\include\c++\10.2.1\bits\char_traits.h **** 
 370              		.loc 6 322 14 is_stmt 0 view .LVU82
 371 0032 0355     		strb	r3, [r0, r4]
 372              	.LVL21:
 322:c:\program files\daisytoolchain\arm-none-eabi\include\c++\10.2.1\bits\char_traits.h **** 
 373              		.loc 6 322 14 view .LVU83
 374              	.LBE564:
 375              	.LBE581:
 376              	.LBE589:
 377              	.LBE594:
 378              		.loc 3 233 7 view .LVU84
 379 0034 02B0     		add	sp, sp, #8
 380              		.cfi_remember_state
 381              		.cfi_def_cfa_offset 16
 382              		@ sp needed
 383 0036 70BD     		pop	{r4, r5, r6, pc}
 384              	.LVL22:
 385              	.L47:
 386              		.cfi_restore_state
 219:c:\program files\daisytoolchain\arm-none-eabi\include\c++\10.2.1\bits\basic_string.tcc **** 	    _M_capacity(__dnew);
 387              		.loc 3 219 13 view .LVU85
 388 0038 0022     		movs	r2, #0
 389              	.LVL23:
 219:c:\program files\daisytoolchain\arm-none-eabi\include\c++\10.2.1\bits\basic_string.tcc **** 	    _M_capacity(__dnew);
 390              		.loc 3 219 13 view .LVU86
 391 003a 01A9     		add	r1, sp, #4
 392              	.LVL24:
 219:c:\program files\daisytoolchain\arm-none-eabi\include\c++\10.2.1\bits\basic_string.tcc **** 	    _M_capacity(__dnew);
 393              		.loc 3 219 13 view .LVU87
 394 003c 2846     		mov	r0, r5
 395              	.LVL25:
 219:c:\program files\daisytoolchain\arm-none-eabi\include\c++\10.2.1\bits\basic_string.tcc **** 	    _M_capacity(__dnew);
 396              		.loc 3 219 13 view .LVU88
 397 003e FFF7FEFF 		bl	_ZNSt7__cxx1112basic_stringIcSt11char_traitsIcESaIcEE9_M_createERjj
 398              	.LVL26:
 399              	.LBB595:
 400              	.LBB596:
 211:c:\program files\daisytoolchain\arm-none-eabi\include\c++\10.2.1\bits\basic_string.h **** 
 401              		.loc 5 211 31 view .LVU89
 402 0042 019B     		ldr	r3, [sp, #4]
 403              	.LVL27:
 211:c:\program files\daisytoolchain\arm-none-eabi\include\c++\10.2.1\bits\basic_string.h **** 
 404              		.loc 5 211 31 view .LVU90
 405              	.LBE596:
 406              	.LBE595:
 407              	.LBB598:
 408              	.LBI598:
 178:c:\program files\daisytoolchain\arm-none-eabi\include\c++\10.2.1\bits\basic_string.h ****       { _M_dataplus._M_p = __p; }
 409              		.loc 5 178 7 is_stmt 1 view .LVU91
 410              	.LBB599:
 179:c:\program files\daisytoolchain\arm-none-eabi\include\c++\10.2.1\bits\basic_string.h **** 
 411              		.loc 5 179 26 is_stmt 0 view .LVU92
 412 0044 2860     		str	r0, [r5]
 413              	.LVL28:
 179:c:\program files\daisytoolchain\arm-none-eabi\include\c++\10.2.1\bits\basic_string.h **** 
 414              		.loc 5 179 26 view .LVU93
 415              	.LBE599:
ARM GAS  C:\Users\ryota\AppData\Local\Temp\ccNuOPtY.s 			page 34


 416              	.LBE598:
 417              	.LBB600:
 418              	.LBI595:
 210:c:\program files\daisytoolchain\arm-none-eabi\include\c++\10.2.1\bits\basic_string.h ****       { _M_allocated_capacity = __capacity; }
 419              		.loc 5 210 7 is_stmt 1 view .LVU94
 210:c:\program files\daisytoolchain\arm-none-eabi\include\c++\10.2.1\bits\basic_string.h ****       { _M_allocated_capacity = __capacity; }
 420              		.loc 5 210 7 is_stmt 0 view .LVU95
 421              	.LBE600:
 422              	.LBB601:
 186:c:\program files\daisytoolchain\arm-none-eabi\include\c++\10.2.1\bits\basic_string.h ****       { return _M_dataplus._M_p; }
 423              		.loc 5 186 7 is_stmt 1 view .LVU96
 186:c:\program files\daisytoolchain\arm-none-eabi\include\c++\10.2.1\bits\basic_string.h ****       { return _M_dataplus._M_p; }
 424              		.loc 5 186 7 is_stmt 0 view .LVU97
 425              	.LBE601:
 426              	.LBB602:
 427              		.loc 5 392 7 is_stmt 1 view .LVU98
 428              	.LBB554:
 346:c:\program files\daisytoolchain\arm-none-eabi\include\c++\10.2.1\bits\basic_string.h ****       {
 429              		.loc 5 346 7 view .LVU99
 430              	.LBB550:
 431              	.LBB546:
 346:c:\program files\daisytoolchain\arm-none-eabi\include\c++\10.2.1\bits\basic_string.h ****       {
 432              		.loc 5 346 7 view .LVU100
 433              	.LBB544:
 387:c:\program files\daisytoolchain\arm-none-eabi\include\c++\10.2.1\bits\char_traits.h ****       {
 434              		.loc 6 387 7 view .LVU101
 435              	.LBB542:
 436              		.loc 6 389 2 view .LVU102
 437              	.LBE542:
 438              	.LBE544:
 439              	.LBE546:
 440              	.LBE550:
 441              	.LBE554:
 442              	.LBE602:
 443              	.LBB603:
 444              	.LBB597:
 211:c:\program files\daisytoolchain\arm-none-eabi\include\c++\10.2.1\bits\basic_string.h **** 
 445              		.loc 5 211 31 is_stmt 0 view .LVU103
 446 0046 AB60     		str	r3, [r5, #8]
 447              	.L32:
 211:c:\program files\daisytoolchain\arm-none-eabi\include\c++\10.2.1\bits\basic_string.h **** 
 448              		.loc 5 211 31 view .LVU104
 449              	.LBE597:
 450              	.LBE603:
 451              	.LBB604:
 452              	.LBB555:
 453              	.LBB551:
 454              	.LBB547:
 455              	.LBB545:
 456              	.LBB543:
 390:c:\program files\daisytoolchain\arm-none-eabi\include\c++\10.2.1\bits\char_traits.h **** 	  return __s1;
 391:c:\program files\daisytoolchain\arm-none-eabi\include\c++\10.2.1\bits\char_traits.h **** #ifdef __cpp_lib_is_constant_evaluated
 392:c:\program files\daisytoolchain\arm-none-eabi\include\c++\10.2.1\bits\char_traits.h **** 	if (std::is_constant_evaluated())
 393:c:\program files\daisytoolchain\arm-none-eabi\include\c++\10.2.1\bits\char_traits.h **** 	  return __gnu_cxx::char_traits<char_type>::copy(__s1, __s2, __n);
 394:c:\program files\daisytoolchain\arm-none-eabi\include\c++\10.2.1\bits\char_traits.h **** #endif
 395:c:\program files\daisytoolchain\arm-none-eabi\include\c++\10.2.1\bits\char_traits.h **** 	return static_cast<char_type*>(__builtin_memcpy(__s1, __s2, __n));
 457              		.loc 6 395 2 is_stmt 1 view .LVU105
ARM GAS  C:\Users\ryota\AppData\Local\Temp\ccNuOPtY.s 			page 35


 458              		.loc 6 395 49 is_stmt 0 view .LVU106
 459 0048 2246     		mov	r2, r4
 460 004a 3146     		mov	r1, r6
 461 004c FFF7FEFF 		bl	memcpy
 462              	.LVL29:
 463              		.loc 6 395 49 view .LVU107
 464              	.LBE543:
 465              	.LBE545:
 466              	.LBE547:
 467              	.LBE551:
 468              	.LBE555:
 469              	.LBE604:
 232:c:\program files\daisytoolchain\arm-none-eabi\include\c++\10.2.1\bits\basic_string.tcc ****       }
 470              		.loc 3 232 15 view .LVU108
 471 0050 019C     		ldr	r4, [sp, #4]
 472              	.LVL30:
 473              	.LBB605:
 474              	.LBB590:
 475              	.LBB582:
 476              	.LBB573:
 187:c:\program files\daisytoolchain\arm-none-eabi\include\c++\10.2.1\bits\basic_string.h **** 
 477              		.loc 5 187 28 view .LVU109
 478 0052 2868     		ldr	r0, [r5]
 479              	.LVL31:
 187:c:\program files\daisytoolchain\arm-none-eabi\include\c++\10.2.1\bits\basic_string.h **** 
 480              		.loc 5 187 28 view .LVU110
 481              	.LBE573:
 482              	.LBE582:
 483              	.LBE590:
 214:c:\program files\daisytoolchain\arm-none-eabi\include\c++\10.2.1\bits\basic_string.h ****       {
 484              		.loc 5 214 7 is_stmt 1 view .LVU111
 485              	.LBB591:
 486              	.LBB583:
 182:c:\program files\daisytoolchain\arm-none-eabi\include\c++\10.2.1\bits\basic_string.h ****       { _M_string_length = __length; }
 487              		.loc 5 182 7 view .LVU112
 488              	.LBE583:
 489              	.LBB584:
 490              	.LBB565:
 322:c:\program files\daisytoolchain\arm-none-eabi\include\c++\10.2.1\bits\char_traits.h **** 
 491              		.loc 6 322 14 is_stmt 0 view .LVU113
 492 0054 0023     		movs	r3, #0
 493              	.LBE565:
 494              	.LBE584:
 495              	.LBB585:
 496              	.LBB570:
 183:c:\program files\daisytoolchain\arm-none-eabi\include\c++\10.2.1\bits\basic_string.h **** 
 497              		.loc 5 183 26 view .LVU114
 498 0056 6C60     		str	r4, [r5, #4]
 499              	.LVL32:
 183:c:\program files\daisytoolchain\arm-none-eabi\include\c++\10.2.1\bits\basic_string.h **** 
 500              		.loc 5 183 26 view .LVU115
 501              	.LBE570:
 502              	.LBE585:
 503              	.LBB586:
 186:c:\program files\daisytoolchain\arm-none-eabi\include\c++\10.2.1\bits\basic_string.h ****       { return _M_dataplus._M_p; }
 504              		.loc 5 186 7 is_stmt 1 view .LVU116
 186:c:\program files\daisytoolchain\arm-none-eabi\include\c++\10.2.1\bits\basic_string.h ****       { return _M_dataplus._M_p; }
ARM GAS  C:\Users\ryota\AppData\Local\Temp\ccNuOPtY.s 			page 36


 505              		.loc 5 186 7 is_stmt 0 view .LVU117
 506              	.LBE586:
 507              	.LBB587:
 321:c:\program files\daisytoolchain\arm-none-eabi\include\c++\10.2.1\bits\char_traits.h ****       { __c1 = __c2; }
 508              		.loc 6 321 7 is_stmt 1 view .LVU118
 509              	.LBB566:
 322:c:\program files\daisytoolchain\arm-none-eabi\include\c++\10.2.1\bits\char_traits.h **** 
 510              		.loc 6 322 9 view .LVU119
 322:c:\program files\daisytoolchain\arm-none-eabi\include\c++\10.2.1\bits\char_traits.h **** 
 511              		.loc 6 322 14 is_stmt 0 view .LVU120
 512 0058 0355     		strb	r3, [r0, r4]
 513              	.LVL33:
 322:c:\program files\daisytoolchain\arm-none-eabi\include\c++\10.2.1\bits\char_traits.h **** 
 514              		.loc 6 322 14 view .LVU121
 515              	.LBE566:
 516              	.LBE587:
 517              	.LBE591:
 518              	.LBE605:
 519              		.loc 3 233 7 view .LVU122
 520 005a 02B0     		add	sp, sp, #8
 521              		.cfi_remember_state
 522              		.cfi_def_cfa_offset 16
 523              		@ sp needed
 524 005c 70BD     		pop	{r4, r5, r6, pc}
 525              	.LVL34:
 526              	.L46:
 527              		.cfi_restore_state
 212:c:\program files\daisytoolchain\arm-none-eabi\include\c++\10.2.1\bits\basic_string.tcc **** 				       "_M_construct null not valid"));
 528              		.loc 3 212 28 view .LVU123
 529 005e 0148     		ldr	r0, .L48
 530              	.LVL35:
 212:c:\program files\daisytoolchain\arm-none-eabi\include\c++\10.2.1\bits\basic_string.tcc **** 				       "_M_construct null not valid"));
 531              		.loc 3 212 28 view .LVU124
 532 0060 FFF7FEFF 		bl	_ZSt19__throw_logic_errorPKc
 533              	.LVL36:
 534              	.L49:
 212:c:\program files\daisytoolchain\arm-none-eabi\include\c++\10.2.1\bits\basic_string.tcc **** 				       "_M_construct null not valid"));
 535              		.loc 3 212 28 view .LVU125
 536              		.align	2
 537              	.L48:
 538 0064 00000000 		.word	.LC0
 539              		.cfi_endproc
 540              	.LFE3700:
 542              		.section	.text._ZN13SerialLibraryC2ERN5daisy9DaisySeedE,"ax",%progbits
 543              		.align	1
 544              		.p2align 2,,3
 545              		.global	_ZN13SerialLibraryC2ERN5daisy9DaisySeedE
 546              		.syntax unified
 547              		.thumb
 548              		.thumb_func
 549              		.fpu fpv5-d16
 551              	_ZN13SerialLibraryC2ERN5daisy9DaisySeedE:
 552              	.LVL37:
 553              	.LFB3172:
   6:library/serial_library.cpp **** SerialLibrary::SerialLibrary(DaisySeed& hw) : hw_(hw), command_buffer_("") {
 554              		.loc 1 6 1 is_stmt 1 view -0
 555              		.cfi_startproc
ARM GAS  C:\Users\ryota\AppData\Local\Temp\ccNuOPtY.s 			page 37


 556              		@ args = 0, pretend = 0, frame = 0
 557              		@ frame_needed = 0, uses_anonymous_args = 0
 558              		@ link register save eliminated.
   6:library/serial_library.cpp **** SerialLibrary::SerialLibrary(DaisySeed& hw) : hw_(hw), command_buffer_("") {
 559              		.loc 1 6 1 is_stmt 0 view .LVU127
 560 0000 30B4     		push	{r4, r5}
 561              		.cfi_def_cfa_offset 8
 562              		.cfi_offset 4, -8
 563              		.cfi_offset 5, -4
 564              	.LBB664:
   6:library/serial_library.cpp **** SerialLibrary::SerialLibrary(DaisySeed& hw) : hw_(hw), command_buffer_("") {
 565              		.loc 1 6 74 view .LVU128
 566 0002 0446     		mov	r4, r0
 567              	.LBB665:
 568              	.LBB666:
 569              	.LBB667:
 570              	.LBB668:
  15:../../libDaisy//src/util/FIFO.h ****     {
 571              		.loc 2 15 75 view .LVU129
 572 0004 0022     		movs	r2, #0
 573 0006 40F20145 		movw	r5, #1025
 574              	.LBE668:
 575              	.LBE667:
 576              	.LBE666:
 577              	.LBE665:
   6:library/serial_library.cpp **** SerialLibrary::SerialLibrary(DaisySeed& hw) : hw_(hw), command_buffer_("") {
 578              		.loc 1 6 74 view .LVU130
 579 000a 44F8141B 		str	r1, [r4], #20
 580              	.LVL38:
 581              	.LBB680:
 582              	.LBI665:
 176:../../libDaisy//src/util/FIFO.h ****         return size_t(numElements);
 177:../../libDaisy//src/util/FIFO.h ****     }
 178:../../libDaisy//src/util/FIFO.h **** 
 179:../../libDaisy//src/util/FIFO.h ****     /** inserts an element "idx" positions behind the first element and returns true if successful 
 180:../../libDaisy//src/util/FIFO.h ****     bool Insert(size_t idx, const T& element)
 181:../../libDaisy//src/util/FIFO.h ****     {
 182:../../libDaisy//src/util/FIFO.h ****         if(idx > GetNumElements())
 183:../../libDaisy//src/util/FIFO.h ****             return false;
 184:../../libDaisy//src/util/FIFO.h ****         if(IsFull())
 185:../../libDaisy//src/util/FIFO.h ****             return false;
 186:../../libDaisy//src/util/FIFO.h ****         if(idx == GetNumElements())
 187:../../libDaisy//src/util/FIFO.h ****         {
 188:../../libDaisy//src/util/FIFO.h ****             PushBack(element);
 189:../../libDaisy//src/util/FIFO.h ****             return true;
 190:../../libDaisy//src/util/FIFO.h ****         }
 191:../../libDaisy//src/util/FIFO.h ****         // copy last element
 192:../../libDaisy//src/util/FIFO.h ****         PushBack(Back());
 193:../../libDaisy//src/util/FIFO.h ****         // move remaining elements: n => n+1
 194:../../libDaisy//src/util/FIFO.h ****         for(int i = GetNumElements() - 2; i > int(idx); i--)
 195:../../libDaisy//src/util/FIFO.h ****             (*this)[i] = (*this)[i - 1];
 196:../../libDaisy//src/util/FIFO.h ****         // insert element
 197:../../libDaisy//src/util/FIFO.h ****         (*this)[idx] = element;
 198:../../libDaisy//src/util/FIFO.h ****         return true;
 199:../../libDaisy//src/util/FIFO.h ****     }
 200:../../libDaisy//src/util/FIFO.h **** 
 201:../../libDaisy//src/util/FIFO.h ****     /** removes the element "idx" positions behind the first element 
ARM GAS  C:\Users\ryota\AppData\Local\Temp\ccNuOPtY.s 			page 38


 202:../../libDaisy//src/util/FIFO.h ****      *  and returns true if successful */
 203:../../libDaisy//src/util/FIFO.h ****     bool Remove(size_t idx)
 204:../../libDaisy//src/util/FIFO.h ****     {
 205:../../libDaisy//src/util/FIFO.h ****         if(idx >= GetNumElements())
 206:../../libDaisy//src/util/FIFO.h ****             return false;
 207:../../libDaisy//src/util/FIFO.h **** 
 208:../../libDaisy//src/util/FIFO.h ****         size_t index = bufferOut_ + idx;
 209:../../libDaisy//src/util/FIFO.h ****         if(index >= bufferSize_)
 210:../../libDaisy//src/util/FIFO.h ****             index -= bufferSize_;
 211:../../libDaisy//src/util/FIFO.h ****         size_t nextIndex = index + 1;
 212:../../libDaisy//src/util/FIFO.h ****         if(nextIndex >= bufferSize_)
 213:../../libDaisy//src/util/FIFO.h ****             nextIndex -= bufferSize_;
 214:../../libDaisy//src/util/FIFO.h **** 
 215:../../libDaisy//src/util/FIFO.h ****         while(nextIndex != bufferIn_)
 216:../../libDaisy//src/util/FIFO.h ****         {
 217:../../libDaisy//src/util/FIFO.h ****             buffer_[index] = buffer_[nextIndex];
 218:../../libDaisy//src/util/FIFO.h ****             index++;
 219:../../libDaisy//src/util/FIFO.h ****             nextIndex++;
 220:../../libDaisy//src/util/FIFO.h ****             if(index >= bufferSize_)
 221:../../libDaisy//src/util/FIFO.h ****                 index -= bufferSize_;
 222:../../libDaisy//src/util/FIFO.h ****             if(nextIndex >= bufferSize_)
 223:../../libDaisy//src/util/FIFO.h ****                 nextIndex -= bufferSize_;
 224:../../libDaisy//src/util/FIFO.h ****         }
 225:../../libDaisy//src/util/FIFO.h **** 
 226:../../libDaisy//src/util/FIFO.h ****         int32_t nextBufferIn = int32_t(bufferIn_) - 1;
 227:../../libDaisy//src/util/FIFO.h ****         if(nextBufferIn < 0)
 228:../../libDaisy//src/util/FIFO.h ****             nextBufferIn += bufferSize_;
 229:../../libDaisy//src/util/FIFO.h ****         bufferIn_ = size_t(nextBufferIn);
 230:../../libDaisy//src/util/FIFO.h **** 
 231:../../libDaisy//src/util/FIFO.h ****         return true;
 232:../../libDaisy//src/util/FIFO.h ****     }
 233:../../libDaisy//src/util/FIFO.h **** 
 234:../../libDaisy//src/util/FIFO.h ****     /** removes all elements from the buffer for which
 235:../../libDaisy//src/util/FIFO.h ****         (buffer(index) == element) returns true and returns the number of
 236:../../libDaisy//src/util/FIFO.h ****         elements that were removed. */
 237:../../libDaisy//src/util/FIFO.h ****     size_t RemoveAllEqualTo(const T& element)
 238:../../libDaisy//src/util/FIFO.h ****     {
 239:../../libDaisy//src/util/FIFO.h ****         size_t numRemoved = 0;
 240:../../libDaisy//src/util/FIFO.h ****         int    idx        = GetNumElements() - 1;
 241:../../libDaisy//src/util/FIFO.h ****         while(idx >= 0)
 242:../../libDaisy//src/util/FIFO.h ****         {
 243:../../libDaisy//src/util/FIFO.h ****             if((*this)[idx] == element)
 244:../../libDaisy//src/util/FIFO.h ****             {
 245:../../libDaisy//src/util/FIFO.h ****                 numRemoved++;
 246:../../libDaisy//src/util/FIFO.h ****                 Remove(idx);
 247:../../libDaisy//src/util/FIFO.h ****                 // was that the last element?
 248:../../libDaisy//src/util/FIFO.h ****                 if(idx == int(GetNumElements()) - 1)
 249:../../libDaisy//src/util/FIFO.h ****                     idx--;
 250:../../libDaisy//src/util/FIFO.h ****             }
 251:../../libDaisy//src/util/FIFO.h ****             else
 252:../../libDaisy//src/util/FIFO.h ****                 idx--;
 253:../../libDaisy//src/util/FIFO.h ****         }
 254:../../libDaisy//src/util/FIFO.h ****         return numRemoved;
 255:../../libDaisy//src/util/FIFO.h ****     }
 256:../../libDaisy//src/util/FIFO.h **** 
 257:../../libDaisy//src/util/FIFO.h ****     /** returns the element "idx" positions behind the first element */
 258:../../libDaisy//src/util/FIFO.h ****     T& operator[](size_t idx)
ARM GAS  C:\Users\ryota\AppData\Local\Temp\ccNuOPtY.s 			page 39


 259:../../libDaisy//src/util/FIFO.h ****     {
 260:../../libDaisy//src/util/FIFO.h ****         if(idx >= GetNumElements())
 261:../../libDaisy//src/util/FIFO.h ****             // invalid, but better not pass a temporary T() object as a reference...
 262:../../libDaisy//src/util/FIFO.h ****             return buffer_[0];
 263:../../libDaisy//src/util/FIFO.h **** 
 264:../../libDaisy//src/util/FIFO.h ****         size_t index = bufferOut_ + idx;
 265:../../libDaisy//src/util/FIFO.h ****         if(index >= bufferSize_)
 266:../../libDaisy//src/util/FIFO.h ****             index -= bufferSize_;
 267:../../libDaisy//src/util/FIFO.h ****         return buffer_[index];
 268:../../libDaisy//src/util/FIFO.h ****     }
 269:../../libDaisy//src/util/FIFO.h **** 
 270:../../libDaisy//src/util/FIFO.h ****     /** returns the element "idx" positions behind the first element */
 271:../../libDaisy//src/util/FIFO.h ****     const T& operator[](size_t idx) const
 272:../../libDaisy//src/util/FIFO.h ****     {
 273:../../libDaisy//src/util/FIFO.h ****         if(idx >= GetNumElements())
 274:../../libDaisy//src/util/FIFO.h ****             // invalid, but better not pass a temporary T() object as a reference...
 275:../../libDaisy//src/util/FIFO.h ****             return buffer_[0];
 276:../../libDaisy//src/util/FIFO.h **** 
 277:../../libDaisy//src/util/FIFO.h ****         size_t index = bufferOut_ + idx;
 278:../../libDaisy//src/util/FIFO.h ****         if(index >= bufferSize_)
 279:../../libDaisy//src/util/FIFO.h ****             index -= bufferSize_;
 280:../../libDaisy//src/util/FIFO.h ****         return buffer_[index];
 281:../../libDaisy//src/util/FIFO.h ****     }
 282:../../libDaisy//src/util/FIFO.h **** 
 283:../../libDaisy//src/util/FIFO.h ****     /** returns the total capacity */
 284:../../libDaisy//src/util/FIFO.h ****     size_t GetCapacity() const { return bufferSize_ - 1; }
 285:../../libDaisy//src/util/FIFO.h **** 
 286:../../libDaisy//src/util/FIFO.h ****   private:
 287:../../libDaisy//src/util/FIFO.h ****     FIFOBase(const FIFOBase<T>&) {} // non copyable
 288:../../libDaisy//src/util/FIFO.h **** 
 289:../../libDaisy//src/util/FIFO.h ****   private:
 290:../../libDaisy//src/util/FIFO.h ****     T*           buffer_;
 291:../../libDaisy//src/util/FIFO.h ****     const size_t bufferSize_;
 292:../../libDaisy//src/util/FIFO.h ****     size_t       bufferIn_;
 293:../../libDaisy//src/util/FIFO.h ****     size_t       bufferOut_;
 294:../../libDaisy//src/util/FIFO.h **** };
 295:../../libDaisy//src/util/FIFO.h **** 
 296:../../libDaisy//src/util/FIFO.h **** /** A simple FIFO ring buffer with a fixed size. */
 297:../../libDaisy//src/util/FIFO.h **** template <typename T, size_t capacity>
 298:../../libDaisy//src/util/FIFO.h **** class FIFO : public FIFOBase<T>
 299:../../libDaisy//src/util/FIFO.h **** {
 300:../../libDaisy//src/util/FIFO.h ****   public:
 301:../../libDaisy//src/util/FIFO.h ****     /** Creates an empty FIFO */
 302:../../libDaisy//src/util/FIFO.h ****     FIFO() : FIFOBase<T>(buffer_, capacity + 1) {}
 583              		.loc 2 302 5 is_stmt 1 view .LVU131
 584              	.LBB676:
 585              	.LBB672:
 586              	.LBI667:
  14:../../libDaisy//src/util/FIFO.h ****     : buffer_(buffer), bufferSize_(bufferSize), bufferIn_(0), bufferOut_(0)
 587              		.loc 2 14 5 view .LVU132
 588              	.LBE672:
 589              	.LBE676:
 590              	.LBE680:
 591              	.LBB681:
 592              	.LBB682:
 593              	.LBB683:
 193:c:\program files\daisytoolchain\arm-none-eabi\include\c++\10.2.1\bits\basic_string.h **** #else
ARM GAS  C:\Users\ryota\AppData\Local\Temp\ccNuOPtY.s 			page 40


 594              		.loc 5 193 51 is_stmt 0 view .LVU133
 595 000e 00F58461 		add	r1, r0, #1056
 596              	.LVL39:
 193:c:\program files\daisytoolchain\arm-none-eabi\include\c++\10.2.1\bits\basic_string.h **** #else
 597              		.loc 5 193 51 view .LVU134
 598              	.LBE683:
 599              	.LBE682:
 600              	.LBE681:
 601              	.LBB718:
 602              	.LBB677:
 603              	.LBB673:
 604              	.LBB669:
  15:../../libDaisy//src/util/FIFO.h ****     {
 605              		.loc 2 15 75 view .LVU135
 606 0012 8560     		str	r5, [r0, #8]
 607              	.LBE669:
 608              	.LBE673:
 609              	.LBE677:
 610              	.LBE718:
 611              	.LBB719:
 612              	.LBB684:
 613              	.LBB685:
 157:c:\program files\daisytoolchain\arm-none-eabi\include\c++\10.2.1\bits\basic_string.h **** 
 614              		.loc 5 157 35 view .LVU136
 615 0014 C0F81814 		str	r1, [r0, #1048]
 616              	.LBE685:
 617              	.LBE684:
 618              	.LBE719:
   7:library/serial_library.cpp ****     instance_ = this;
 619              		.loc 1 7 15 view .LVU137
 620 0018 0549     		ldr	r1, .L52
 621              	.LBB720:
 622              	.LBB678:
 623              	.LBB674:
 624              	.LBB670:
  15:../../libDaisy//src/util/FIFO.h ****     {
 625              		.loc 2 15 75 view .LVU138
 626 001a 4460     		str	r4, [r0, #4]
 627              	.LBE670:
 628              	.LBE674:
 629              	.LBE678:
 630              	.LBE720:
 631              	.LBB721:
 632              	.LBB689:
 633              	.LBB690:
 634              	.LBB691:
 635              	.LBB692:
 636              	.LBB693:
 637              	.LBB694:
 638              	.LBB695:
 639              	.LBB696:
 640              	.LBB697:
 183:c:\program files\daisytoolchain\arm-none-eabi\include\c++\10.2.1\bits\basic_string.h **** 
 641              		.loc 5 183 26 view .LVU139
 642 001c C0F81C24 		str	r2, [r0, #1052]
 643              	.LBE697:
 644              	.LBE696:
ARM GAS  C:\Users\ryota\AppData\Local\Temp\ccNuOPtY.s 			page 41


 645              	.LBB698:
 646              	.LBB699:
 322:c:\program files\daisytoolchain\arm-none-eabi\include\c++\10.2.1\bits\char_traits.h **** 
 647              		.loc 6 322 14 view .LVU140
 648 0020 80F82024 		strb	r2, [r0, #1056]
 649              	.LBE699:
 650              	.LBE698:
 651              	.LBE695:
 652              	.LBE694:
 653              	.LBE693:
 654              	.LBE692:
 655              	.LBE691:
 656              	.LBE690:
 657              	.LBE689:
 658              	.LBE721:
   7:library/serial_library.cpp ****     instance_ = this;
 659              		.loc 1 7 15 view .LVU141
 660 0024 0860     		str	r0, [r1]
 661              	.LBE664:
   8:library/serial_library.cpp **** }
 662              		.loc 1 8 1 view .LVU142
 663 0026 30BC     		pop	{r4, r5}
 664              		.cfi_restore 5
 665              		.cfi_restore 4
 666              		.cfi_def_cfa_offset 0
 667              	.LVL40:
 668              	.LBB730:
 669              	.LBB722:
 670              	.LBB679:
 671              	.LBB675:
 672              	.LBB671:
  15:../../libDaisy//src/util/FIFO.h ****     {
 673              		.loc 2 15 75 view .LVU143
 674 0028 C0E90322 		strd	r2, r2, [r0, #12]
 675              	.LVL41:
  15:../../libDaisy//src/util/FIFO.h ****     {
 676              		.loc 2 15 75 view .LVU144
 677              	.LBE671:
 678              	.LBE675:
 679              	.LBE679:
 680              	.LBE722:
 681              	.LBB723:
 682              	.LBI723:
 683              		.file 7 "c:\\program files\\daisytoolchain\\arm-none-eabi\\include\\c++\\10.2.1\\bits\\allocator.h
   1:c:\program files\daisytoolchain\arm-none-eabi\include\c++\10.2.1\bits\allocator.h **** // Allocators -*- C++ -*-
   2:c:\program files\daisytoolchain\arm-none-eabi\include\c++\10.2.1\bits\allocator.h **** 
   3:c:\program files\daisytoolchain\arm-none-eabi\include\c++\10.2.1\bits\allocator.h **** // Copyright (C) 2001-2020 Free Software Foundation, Inc.
   4:c:\program files\daisytoolchain\arm-none-eabi\include\c++\10.2.1\bits\allocator.h **** //
   5:c:\program files\daisytoolchain\arm-none-eabi\include\c++\10.2.1\bits\allocator.h **** // This file is part of the GNU ISO C++ Library.  This library is free
   6:c:\program files\daisytoolchain\arm-none-eabi\include\c++\10.2.1\bits\allocator.h **** // software; you can redistribute it and/or modify it under the
   7:c:\program files\daisytoolchain\arm-none-eabi\include\c++\10.2.1\bits\allocator.h **** // terms of the GNU General Public License as published by the
   8:c:\program files\daisytoolchain\arm-none-eabi\include\c++\10.2.1\bits\allocator.h **** // Free Software Foundation; either version 3, or (at your option)
   9:c:\program files\daisytoolchain\arm-none-eabi\include\c++\10.2.1\bits\allocator.h **** // any later version.
  10:c:\program files\daisytoolchain\arm-none-eabi\include\c++\10.2.1\bits\allocator.h **** 
  11:c:\program files\daisytoolchain\arm-none-eabi\include\c++\10.2.1\bits\allocator.h **** // This library is distributed in the hope that it will be useful,
  12:c:\program files\daisytoolchain\arm-none-eabi\include\c++\10.2.1\bits\allocator.h **** // but WITHOUT ANY WARRANTY; without even the implied warranty of
  13:c:\program files\daisytoolchain\arm-none-eabi\include\c++\10.2.1\bits\allocator.h **** // MERCHANTABILITY or FITNESS FOR A PARTICULAR PURPOSE.  See the
ARM GAS  C:\Users\ryota\AppData\Local\Temp\ccNuOPtY.s 			page 42


  14:c:\program files\daisytoolchain\arm-none-eabi\include\c++\10.2.1\bits\allocator.h **** // GNU General Public License for more details.
  15:c:\program files\daisytoolchain\arm-none-eabi\include\c++\10.2.1\bits\allocator.h **** 
  16:c:\program files\daisytoolchain\arm-none-eabi\include\c++\10.2.1\bits\allocator.h **** // Under Section 7 of GPL version 3, you are granted additional
  17:c:\program files\daisytoolchain\arm-none-eabi\include\c++\10.2.1\bits\allocator.h **** // permissions described in the GCC Runtime Library Exception, version
  18:c:\program files\daisytoolchain\arm-none-eabi\include\c++\10.2.1\bits\allocator.h **** // 3.1, as published by the Free Software Foundation.
  19:c:\program files\daisytoolchain\arm-none-eabi\include\c++\10.2.1\bits\allocator.h **** 
  20:c:\program files\daisytoolchain\arm-none-eabi\include\c++\10.2.1\bits\allocator.h **** // You should have received a copy of the GNU General Public License and
  21:c:\program files\daisytoolchain\arm-none-eabi\include\c++\10.2.1\bits\allocator.h **** // a copy of the GCC Runtime Library Exception along with this program;
  22:c:\program files\daisytoolchain\arm-none-eabi\include\c++\10.2.1\bits\allocator.h **** // see the files COPYING3 and COPYING.RUNTIME respectively.  If not, see
  23:c:\program files\daisytoolchain\arm-none-eabi\include\c++\10.2.1\bits\allocator.h **** // <http://www.gnu.org/licenses/>.
  24:c:\program files\daisytoolchain\arm-none-eabi\include\c++\10.2.1\bits\allocator.h **** 
  25:c:\program files\daisytoolchain\arm-none-eabi\include\c++\10.2.1\bits\allocator.h **** /*
  26:c:\program files\daisytoolchain\arm-none-eabi\include\c++\10.2.1\bits\allocator.h ****  * Copyright (c) 1996-1997
  27:c:\program files\daisytoolchain\arm-none-eabi\include\c++\10.2.1\bits\allocator.h ****  * Silicon Graphics Computer Systems, Inc.
  28:c:\program files\daisytoolchain\arm-none-eabi\include\c++\10.2.1\bits\allocator.h ****  *
  29:c:\program files\daisytoolchain\arm-none-eabi\include\c++\10.2.1\bits\allocator.h ****  * Permission to use, copy, modify, distribute and sell this software
  30:c:\program files\daisytoolchain\arm-none-eabi\include\c++\10.2.1\bits\allocator.h ****  * and its documentation for any purpose is hereby granted without fee,
  31:c:\program files\daisytoolchain\arm-none-eabi\include\c++\10.2.1\bits\allocator.h ****  * provided that the above copyright notice appear in all copies and
  32:c:\program files\daisytoolchain\arm-none-eabi\include\c++\10.2.1\bits\allocator.h ****  * that both that copyright notice and this permission notice appear
  33:c:\program files\daisytoolchain\arm-none-eabi\include\c++\10.2.1\bits\allocator.h ****  * in supporting documentation.  Silicon Graphics makes no
  34:c:\program files\daisytoolchain\arm-none-eabi\include\c++\10.2.1\bits\allocator.h ****  * representations about the suitability of this software for any
  35:c:\program files\daisytoolchain\arm-none-eabi\include\c++\10.2.1\bits\allocator.h ****  * purpose.  It is provided "as is" without express or implied warranty.
  36:c:\program files\daisytoolchain\arm-none-eabi\include\c++\10.2.1\bits\allocator.h ****  */
  37:c:\program files\daisytoolchain\arm-none-eabi\include\c++\10.2.1\bits\allocator.h **** 
  38:c:\program files\daisytoolchain\arm-none-eabi\include\c++\10.2.1\bits\allocator.h **** /** @file bits/allocator.h
  39:c:\program files\daisytoolchain\arm-none-eabi\include\c++\10.2.1\bits\allocator.h ****  *  This is an internal header file, included by other library headers.
  40:c:\program files\daisytoolchain\arm-none-eabi\include\c++\10.2.1\bits\allocator.h ****  *  Do not attempt to use it directly. @headername{memory}
  41:c:\program files\daisytoolchain\arm-none-eabi\include\c++\10.2.1\bits\allocator.h ****  */
  42:c:\program files\daisytoolchain\arm-none-eabi\include\c++\10.2.1\bits\allocator.h **** 
  43:c:\program files\daisytoolchain\arm-none-eabi\include\c++\10.2.1\bits\allocator.h **** #ifndef _ALLOCATOR_H
  44:c:\program files\daisytoolchain\arm-none-eabi\include\c++\10.2.1\bits\allocator.h **** #define _ALLOCATOR_H 1
  45:c:\program files\daisytoolchain\arm-none-eabi\include\c++\10.2.1\bits\allocator.h **** 
  46:c:\program files\daisytoolchain\arm-none-eabi\include\c++\10.2.1\bits\allocator.h **** #include <bits/c++allocator.h> // Define the base class to std::allocator.
  47:c:\program files\daisytoolchain\arm-none-eabi\include\c++\10.2.1\bits\allocator.h **** #include <bits/memoryfwd.h>
  48:c:\program files\daisytoolchain\arm-none-eabi\include\c++\10.2.1\bits\allocator.h **** #if __cplusplus >= 201103L
  49:c:\program files\daisytoolchain\arm-none-eabi\include\c++\10.2.1\bits\allocator.h **** #include <type_traits>
  50:c:\program files\daisytoolchain\arm-none-eabi\include\c++\10.2.1\bits\allocator.h **** #endif
  51:c:\program files\daisytoolchain\arm-none-eabi\include\c++\10.2.1\bits\allocator.h **** 
  52:c:\program files\daisytoolchain\arm-none-eabi\include\c++\10.2.1\bits\allocator.h **** #define __cpp_lib_incomplete_container_elements 201505
  53:c:\program files\daisytoolchain\arm-none-eabi\include\c++\10.2.1\bits\allocator.h **** 
  54:c:\program files\daisytoolchain\arm-none-eabi\include\c++\10.2.1\bits\allocator.h **** namespace std _GLIBCXX_VISIBILITY(default)
  55:c:\program files\daisytoolchain\arm-none-eabi\include\c++\10.2.1\bits\allocator.h **** {
  56:c:\program files\daisytoolchain\arm-none-eabi\include\c++\10.2.1\bits\allocator.h **** _GLIBCXX_BEGIN_NAMESPACE_VERSION
  57:c:\program files\daisytoolchain\arm-none-eabi\include\c++\10.2.1\bits\allocator.h **** 
  58:c:\program files\daisytoolchain\arm-none-eabi\include\c++\10.2.1\bits\allocator.h ****   /**
  59:c:\program files\daisytoolchain\arm-none-eabi\include\c++\10.2.1\bits\allocator.h ****    *  @addtogroup allocators
  60:c:\program files\daisytoolchain\arm-none-eabi\include\c++\10.2.1\bits\allocator.h ****    *  @{
  61:c:\program files\daisytoolchain\arm-none-eabi\include\c++\10.2.1\bits\allocator.h ****    */
  62:c:\program files\daisytoolchain\arm-none-eabi\include\c++\10.2.1\bits\allocator.h **** 
  63:c:\program files\daisytoolchain\arm-none-eabi\include\c++\10.2.1\bits\allocator.h ****   /// allocator<void> specialization.
  64:c:\program files\daisytoolchain\arm-none-eabi\include\c++\10.2.1\bits\allocator.h ****   template<>
  65:c:\program files\daisytoolchain\arm-none-eabi\include\c++\10.2.1\bits\allocator.h ****     class allocator<void>
  66:c:\program files\daisytoolchain\arm-none-eabi\include\c++\10.2.1\bits\allocator.h ****     {
  67:c:\program files\daisytoolchain\arm-none-eabi\include\c++\10.2.1\bits\allocator.h ****     public:
  68:c:\program files\daisytoolchain\arm-none-eabi\include\c++\10.2.1\bits\allocator.h ****       typedef void        value_type;
  69:c:\program files\daisytoolchain\arm-none-eabi\include\c++\10.2.1\bits\allocator.h ****       typedef size_t      size_type;
  70:c:\program files\daisytoolchain\arm-none-eabi\include\c++\10.2.1\bits\allocator.h ****       typedef ptrdiff_t   difference_type;
ARM GAS  C:\Users\ryota\AppData\Local\Temp\ccNuOPtY.s 			page 43


  71:c:\program files\daisytoolchain\arm-none-eabi\include\c++\10.2.1\bits\allocator.h **** #if __cplusplus <= 201703L
  72:c:\program files\daisytoolchain\arm-none-eabi\include\c++\10.2.1\bits\allocator.h ****       typedef void*       pointer;
  73:c:\program files\daisytoolchain\arm-none-eabi\include\c++\10.2.1\bits\allocator.h ****       typedef const void* const_pointer;
  74:c:\program files\daisytoolchain\arm-none-eabi\include\c++\10.2.1\bits\allocator.h **** 
  75:c:\program files\daisytoolchain\arm-none-eabi\include\c++\10.2.1\bits\allocator.h ****       template<typename _Tp1>
  76:c:\program files\daisytoolchain\arm-none-eabi\include\c++\10.2.1\bits\allocator.h **** 	struct rebind
  77:c:\program files\daisytoolchain\arm-none-eabi\include\c++\10.2.1\bits\allocator.h **** 	{ typedef allocator<_Tp1> other; };
  78:c:\program files\daisytoolchain\arm-none-eabi\include\c++\10.2.1\bits\allocator.h **** #else
  79:c:\program files\daisytoolchain\arm-none-eabi\include\c++\10.2.1\bits\allocator.h ****       allocator() = default;
  80:c:\program files\daisytoolchain\arm-none-eabi\include\c++\10.2.1\bits\allocator.h **** 
  81:c:\program files\daisytoolchain\arm-none-eabi\include\c++\10.2.1\bits\allocator.h ****       template<typename _Up>
  82:c:\program files\daisytoolchain\arm-none-eabi\include\c++\10.2.1\bits\allocator.h **** 	constexpr
  83:c:\program files\daisytoolchain\arm-none-eabi\include\c++\10.2.1\bits\allocator.h **** 	allocator(const allocator<_Up>&) { }
  84:c:\program files\daisytoolchain\arm-none-eabi\include\c++\10.2.1\bits\allocator.h **** #endif // ! C++20
  85:c:\program files\daisytoolchain\arm-none-eabi\include\c++\10.2.1\bits\allocator.h **** 
  86:c:\program files\daisytoolchain\arm-none-eabi\include\c++\10.2.1\bits\allocator.h **** #if __cplusplus >= 201103L && __cplusplus <= 201703L
  87:c:\program files\daisytoolchain\arm-none-eabi\include\c++\10.2.1\bits\allocator.h ****       // _GLIBCXX_RESOLVE_LIB_DEFECTS
  88:c:\program files\daisytoolchain\arm-none-eabi\include\c++\10.2.1\bits\allocator.h ****       // 2103. std::allocator propagate_on_container_move_assignment
  89:c:\program files\daisytoolchain\arm-none-eabi\include\c++\10.2.1\bits\allocator.h ****       typedef true_type propagate_on_container_move_assignment;
  90:c:\program files\daisytoolchain\arm-none-eabi\include\c++\10.2.1\bits\allocator.h **** 
  91:c:\program files\daisytoolchain\arm-none-eabi\include\c++\10.2.1\bits\allocator.h ****       typedef true_type is_always_equal;
  92:c:\program files\daisytoolchain\arm-none-eabi\include\c++\10.2.1\bits\allocator.h **** 
  93:c:\program files\daisytoolchain\arm-none-eabi\include\c++\10.2.1\bits\allocator.h ****       template<typename _Up, typename... _Args>
  94:c:\program files\daisytoolchain\arm-none-eabi\include\c++\10.2.1\bits\allocator.h **** 	void
  95:c:\program files\daisytoolchain\arm-none-eabi\include\c++\10.2.1\bits\allocator.h **** 	construct(_Up* __p, _Args&&... __args)
  96:c:\program files\daisytoolchain\arm-none-eabi\include\c++\10.2.1\bits\allocator.h **** 	noexcept(std::is_nothrow_constructible<_Up, _Args...>::value)
  97:c:\program files\daisytoolchain\arm-none-eabi\include\c++\10.2.1\bits\allocator.h **** 	{ ::new((void *)__p) _Up(std::forward<_Args>(__args)...); }
  98:c:\program files\daisytoolchain\arm-none-eabi\include\c++\10.2.1\bits\allocator.h **** 
  99:c:\program files\daisytoolchain\arm-none-eabi\include\c++\10.2.1\bits\allocator.h ****       template<typename _Up>
 100:c:\program files\daisytoolchain\arm-none-eabi\include\c++\10.2.1\bits\allocator.h **** 	void
 101:c:\program files\daisytoolchain\arm-none-eabi\include\c++\10.2.1\bits\allocator.h **** 	destroy(_Up* __p)
 102:c:\program files\daisytoolchain\arm-none-eabi\include\c++\10.2.1\bits\allocator.h **** 	noexcept(std::is_nothrow_destructible<_Up>::value)
 103:c:\program files\daisytoolchain\arm-none-eabi\include\c++\10.2.1\bits\allocator.h **** 	{ __p->~_Up(); }
 104:c:\program files\daisytoolchain\arm-none-eabi\include\c++\10.2.1\bits\allocator.h **** #endif // C++11 to C++17
 105:c:\program files\daisytoolchain\arm-none-eabi\include\c++\10.2.1\bits\allocator.h ****     };
 106:c:\program files\daisytoolchain\arm-none-eabi\include\c++\10.2.1\bits\allocator.h **** 
 107:c:\program files\daisytoolchain\arm-none-eabi\include\c++\10.2.1\bits\allocator.h ****   /**
 108:c:\program files\daisytoolchain\arm-none-eabi\include\c++\10.2.1\bits\allocator.h ****    * @brief  The @a standard allocator, as per [20.4].
 109:c:\program files\daisytoolchain\arm-none-eabi\include\c++\10.2.1\bits\allocator.h ****    *
 110:c:\program files\daisytoolchain\arm-none-eabi\include\c++\10.2.1\bits\allocator.h ****    *  See https://gcc.gnu.org/onlinedocs/libstdc++/manual/memory.html#std.util.memory.allocator
 111:c:\program files\daisytoolchain\arm-none-eabi\include\c++\10.2.1\bits\allocator.h ****    *  for further details.
 112:c:\program files\daisytoolchain\arm-none-eabi\include\c++\10.2.1\bits\allocator.h ****    *
 113:c:\program files\daisytoolchain\arm-none-eabi\include\c++\10.2.1\bits\allocator.h ****    *  @tparam  _Tp  Type of allocated object.
 114:c:\program files\daisytoolchain\arm-none-eabi\include\c++\10.2.1\bits\allocator.h ****    */
 115:c:\program files\daisytoolchain\arm-none-eabi\include\c++\10.2.1\bits\allocator.h ****   template<typename _Tp>
 116:c:\program files\daisytoolchain\arm-none-eabi\include\c++\10.2.1\bits\allocator.h ****     class allocator : public __allocator_base<_Tp>
 117:c:\program files\daisytoolchain\arm-none-eabi\include\c++\10.2.1\bits\allocator.h ****     {
 118:c:\program files\daisytoolchain\arm-none-eabi\include\c++\10.2.1\bits\allocator.h ****     public:
 119:c:\program files\daisytoolchain\arm-none-eabi\include\c++\10.2.1\bits\allocator.h ****       typedef _Tp        value_type;
 120:c:\program files\daisytoolchain\arm-none-eabi\include\c++\10.2.1\bits\allocator.h ****       typedef size_t     size_type;
 121:c:\program files\daisytoolchain\arm-none-eabi\include\c++\10.2.1\bits\allocator.h ****       typedef ptrdiff_t  difference_type;
 122:c:\program files\daisytoolchain\arm-none-eabi\include\c++\10.2.1\bits\allocator.h **** #if __cplusplus <= 201703L
 123:c:\program files\daisytoolchain\arm-none-eabi\include\c++\10.2.1\bits\allocator.h ****       typedef _Tp*       pointer;
 124:c:\program files\daisytoolchain\arm-none-eabi\include\c++\10.2.1\bits\allocator.h ****       typedef const _Tp* const_pointer;
 125:c:\program files\daisytoolchain\arm-none-eabi\include\c++\10.2.1\bits\allocator.h ****       typedef _Tp&       reference;
 126:c:\program files\daisytoolchain\arm-none-eabi\include\c++\10.2.1\bits\allocator.h ****       typedef const _Tp& const_reference;
 127:c:\program files\daisytoolchain\arm-none-eabi\include\c++\10.2.1\bits\allocator.h **** 
ARM GAS  C:\Users\ryota\AppData\Local\Temp\ccNuOPtY.s 			page 44


 128:c:\program files\daisytoolchain\arm-none-eabi\include\c++\10.2.1\bits\allocator.h ****       template<typename _Tp1>
 129:c:\program files\daisytoolchain\arm-none-eabi\include\c++\10.2.1\bits\allocator.h **** 	struct rebind
 130:c:\program files\daisytoolchain\arm-none-eabi\include\c++\10.2.1\bits\allocator.h **** 	{ typedef allocator<_Tp1> other; };
 131:c:\program files\daisytoolchain\arm-none-eabi\include\c++\10.2.1\bits\allocator.h **** #endif
 132:c:\program files\daisytoolchain\arm-none-eabi\include\c++\10.2.1\bits\allocator.h **** 
 133:c:\program files\daisytoolchain\arm-none-eabi\include\c++\10.2.1\bits\allocator.h **** #if __cplusplus >= 201103L
 134:c:\program files\daisytoolchain\arm-none-eabi\include\c++\10.2.1\bits\allocator.h ****       // _GLIBCXX_RESOLVE_LIB_DEFECTS
 135:c:\program files\daisytoolchain\arm-none-eabi\include\c++\10.2.1\bits\allocator.h ****       // 2103. std::allocator propagate_on_container_move_assignment
 136:c:\program files\daisytoolchain\arm-none-eabi\include\c++\10.2.1\bits\allocator.h ****       typedef true_type propagate_on_container_move_assignment;
 137:c:\program files\daisytoolchain\arm-none-eabi\include\c++\10.2.1\bits\allocator.h **** 
 138:c:\program files\daisytoolchain\arm-none-eabi\include\c++\10.2.1\bits\allocator.h ****       typedef true_type is_always_equal;
 139:c:\program files\daisytoolchain\arm-none-eabi\include\c++\10.2.1\bits\allocator.h **** #endif
 140:c:\program files\daisytoolchain\arm-none-eabi\include\c++\10.2.1\bits\allocator.h **** 
 141:c:\program files\daisytoolchain\arm-none-eabi\include\c++\10.2.1\bits\allocator.h ****       // _GLIBCXX_RESOLVE_LIB_DEFECTS
 142:c:\program files\daisytoolchain\arm-none-eabi\include\c++\10.2.1\bits\allocator.h ****       // 3035. std::allocator's constructors should be constexpr
 143:c:\program files\daisytoolchain\arm-none-eabi\include\c++\10.2.1\bits\allocator.h ****       _GLIBCXX20_CONSTEXPR
 144:c:\program files\daisytoolchain\arm-none-eabi\include\c++\10.2.1\bits\allocator.h ****       allocator() _GLIBCXX_NOTHROW { }
 684              		.loc 7 144 7 is_stmt 1 view .LVU145
 685              	.LBB724:
 686              	.LBI724:
 687              		.file 8 "c:\\program files\\daisytoolchain\\arm-none-eabi\\include\\c++\\10.2.1\\ext\\new_allocato
   1:c:\program files\daisytoolchain\arm-none-eabi\include\c++\10.2.1\ext\new_allocator.h **** // Allocator that wraps operator new -*- C++ -*-
   2:c:\program files\daisytoolchain\arm-none-eabi\include\c++\10.2.1\ext\new_allocator.h **** 
   3:c:\program files\daisytoolchain\arm-none-eabi\include\c++\10.2.1\ext\new_allocator.h **** // Copyright (C) 2001-2020 Free Software Foundation, Inc.
   4:c:\program files\daisytoolchain\arm-none-eabi\include\c++\10.2.1\ext\new_allocator.h **** //
   5:c:\program files\daisytoolchain\arm-none-eabi\include\c++\10.2.1\ext\new_allocator.h **** // This file is part of the GNU ISO C++ Library.  This library is free
   6:c:\program files\daisytoolchain\arm-none-eabi\include\c++\10.2.1\ext\new_allocator.h **** // software; you can redistribute it and/or modify it under the
   7:c:\program files\daisytoolchain\arm-none-eabi\include\c++\10.2.1\ext\new_allocator.h **** // terms of the GNU General Public License as published by the
   8:c:\program files\daisytoolchain\arm-none-eabi\include\c++\10.2.1\ext\new_allocator.h **** // Free Software Foundation; either version 3, or (at your option)
   9:c:\program files\daisytoolchain\arm-none-eabi\include\c++\10.2.1\ext\new_allocator.h **** // any later version.
  10:c:\program files\daisytoolchain\arm-none-eabi\include\c++\10.2.1\ext\new_allocator.h **** 
  11:c:\program files\daisytoolchain\arm-none-eabi\include\c++\10.2.1\ext\new_allocator.h **** // This library is distributed in the hope that it will be useful,
  12:c:\program files\daisytoolchain\arm-none-eabi\include\c++\10.2.1\ext\new_allocator.h **** // but WITHOUT ANY WARRANTY; without even the implied warranty of
  13:c:\program files\daisytoolchain\arm-none-eabi\include\c++\10.2.1\ext\new_allocator.h **** // MERCHANTABILITY or FITNESS FOR A PARTICULAR PURPOSE.  See the
  14:c:\program files\daisytoolchain\arm-none-eabi\include\c++\10.2.1\ext\new_allocator.h **** // GNU General Public License for more details.
  15:c:\program files\daisytoolchain\arm-none-eabi\include\c++\10.2.1\ext\new_allocator.h **** 
  16:c:\program files\daisytoolchain\arm-none-eabi\include\c++\10.2.1\ext\new_allocator.h **** // Under Section 7 of GPL version 3, you are granted additional
  17:c:\program files\daisytoolchain\arm-none-eabi\include\c++\10.2.1\ext\new_allocator.h **** // permissions described in the GCC Runtime Library Exception, version
  18:c:\program files\daisytoolchain\arm-none-eabi\include\c++\10.2.1\ext\new_allocator.h **** // 3.1, as published by the Free Software Foundation.
  19:c:\program files\daisytoolchain\arm-none-eabi\include\c++\10.2.1\ext\new_allocator.h **** 
  20:c:\program files\daisytoolchain\arm-none-eabi\include\c++\10.2.1\ext\new_allocator.h **** // You should have received a copy of the GNU General Public License and
  21:c:\program files\daisytoolchain\arm-none-eabi\include\c++\10.2.1\ext\new_allocator.h **** // a copy of the GCC Runtime Library Exception along with this program;
  22:c:\program files\daisytoolchain\arm-none-eabi\include\c++\10.2.1\ext\new_allocator.h **** // see the files COPYING3 and COPYING.RUNTIME respectively.  If not, see
  23:c:\program files\daisytoolchain\arm-none-eabi\include\c++\10.2.1\ext\new_allocator.h **** // <http://www.gnu.org/licenses/>.
  24:c:\program files\daisytoolchain\arm-none-eabi\include\c++\10.2.1\ext\new_allocator.h **** 
  25:c:\program files\daisytoolchain\arm-none-eabi\include\c++\10.2.1\ext\new_allocator.h **** /** @file ext/new_allocator.h
  26:c:\program files\daisytoolchain\arm-none-eabi\include\c++\10.2.1\ext\new_allocator.h ****  *  This file is a GNU extension to the Standard C++ Library.
  27:c:\program files\daisytoolchain\arm-none-eabi\include\c++\10.2.1\ext\new_allocator.h ****  */
  28:c:\program files\daisytoolchain\arm-none-eabi\include\c++\10.2.1\ext\new_allocator.h **** 
  29:c:\program files\daisytoolchain\arm-none-eabi\include\c++\10.2.1\ext\new_allocator.h **** #ifndef _NEW_ALLOCATOR_H
  30:c:\program files\daisytoolchain\arm-none-eabi\include\c++\10.2.1\ext\new_allocator.h **** #define _NEW_ALLOCATOR_H 1
  31:c:\program files\daisytoolchain\arm-none-eabi\include\c++\10.2.1\ext\new_allocator.h **** 
  32:c:\program files\daisytoolchain\arm-none-eabi\include\c++\10.2.1\ext\new_allocator.h **** #include <bits/c++config.h>
  33:c:\program files\daisytoolchain\arm-none-eabi\include\c++\10.2.1\ext\new_allocator.h **** #include <new>
  34:c:\program files\daisytoolchain\arm-none-eabi\include\c++\10.2.1\ext\new_allocator.h **** #include <bits/functexcept.h>
  35:c:\program files\daisytoolchain\arm-none-eabi\include\c++\10.2.1\ext\new_allocator.h **** #include <bits/move.h>
  36:c:\program files\daisytoolchain\arm-none-eabi\include\c++\10.2.1\ext\new_allocator.h **** #if __cplusplus >= 201103L
ARM GAS  C:\Users\ryota\AppData\Local\Temp\ccNuOPtY.s 			page 45


  37:c:\program files\daisytoolchain\arm-none-eabi\include\c++\10.2.1\ext\new_allocator.h **** #include <type_traits>
  38:c:\program files\daisytoolchain\arm-none-eabi\include\c++\10.2.1\ext\new_allocator.h **** #endif
  39:c:\program files\daisytoolchain\arm-none-eabi\include\c++\10.2.1\ext\new_allocator.h **** 
  40:c:\program files\daisytoolchain\arm-none-eabi\include\c++\10.2.1\ext\new_allocator.h **** namespace __gnu_cxx _GLIBCXX_VISIBILITY(default)
  41:c:\program files\daisytoolchain\arm-none-eabi\include\c++\10.2.1\ext\new_allocator.h **** {
  42:c:\program files\daisytoolchain\arm-none-eabi\include\c++\10.2.1\ext\new_allocator.h **** _GLIBCXX_BEGIN_NAMESPACE_VERSION
  43:c:\program files\daisytoolchain\arm-none-eabi\include\c++\10.2.1\ext\new_allocator.h **** 
  44:c:\program files\daisytoolchain\arm-none-eabi\include\c++\10.2.1\ext\new_allocator.h ****   /**
  45:c:\program files\daisytoolchain\arm-none-eabi\include\c++\10.2.1\ext\new_allocator.h ****    *  @brief  An allocator that uses global new, as per [20.4].
  46:c:\program files\daisytoolchain\arm-none-eabi\include\c++\10.2.1\ext\new_allocator.h ****    *  @ingroup allocators
  47:c:\program files\daisytoolchain\arm-none-eabi\include\c++\10.2.1\ext\new_allocator.h ****    *
  48:c:\program files\daisytoolchain\arm-none-eabi\include\c++\10.2.1\ext\new_allocator.h ****    *  This is precisely the allocator defined in the C++ Standard.
  49:c:\program files\daisytoolchain\arm-none-eabi\include\c++\10.2.1\ext\new_allocator.h ****    *    - all allocation calls operator new
  50:c:\program files\daisytoolchain\arm-none-eabi\include\c++\10.2.1\ext\new_allocator.h ****    *    - all deallocation calls operator delete
  51:c:\program files\daisytoolchain\arm-none-eabi\include\c++\10.2.1\ext\new_allocator.h ****    *
  52:c:\program files\daisytoolchain\arm-none-eabi\include\c++\10.2.1\ext\new_allocator.h ****    *  @tparam  _Tp  Type of allocated object.
  53:c:\program files\daisytoolchain\arm-none-eabi\include\c++\10.2.1\ext\new_allocator.h ****    */
  54:c:\program files\daisytoolchain\arm-none-eabi\include\c++\10.2.1\ext\new_allocator.h ****   template<typename _Tp>
  55:c:\program files\daisytoolchain\arm-none-eabi\include\c++\10.2.1\ext\new_allocator.h ****     class new_allocator
  56:c:\program files\daisytoolchain\arm-none-eabi\include\c++\10.2.1\ext\new_allocator.h ****     {
  57:c:\program files\daisytoolchain\arm-none-eabi\include\c++\10.2.1\ext\new_allocator.h ****     public:
  58:c:\program files\daisytoolchain\arm-none-eabi\include\c++\10.2.1\ext\new_allocator.h ****       typedef _Tp        value_type;
  59:c:\program files\daisytoolchain\arm-none-eabi\include\c++\10.2.1\ext\new_allocator.h ****       typedef std::size_t     size_type;
  60:c:\program files\daisytoolchain\arm-none-eabi\include\c++\10.2.1\ext\new_allocator.h ****       typedef std::ptrdiff_t  difference_type;
  61:c:\program files\daisytoolchain\arm-none-eabi\include\c++\10.2.1\ext\new_allocator.h **** #if __cplusplus <= 201703L
  62:c:\program files\daisytoolchain\arm-none-eabi\include\c++\10.2.1\ext\new_allocator.h ****       typedef _Tp*       pointer;
  63:c:\program files\daisytoolchain\arm-none-eabi\include\c++\10.2.1\ext\new_allocator.h ****       typedef const _Tp* const_pointer;
  64:c:\program files\daisytoolchain\arm-none-eabi\include\c++\10.2.1\ext\new_allocator.h ****       typedef _Tp&       reference;
  65:c:\program files\daisytoolchain\arm-none-eabi\include\c++\10.2.1\ext\new_allocator.h ****       typedef const _Tp& const_reference;
  66:c:\program files\daisytoolchain\arm-none-eabi\include\c++\10.2.1\ext\new_allocator.h **** 
  67:c:\program files\daisytoolchain\arm-none-eabi\include\c++\10.2.1\ext\new_allocator.h ****       template<typename _Tp1>
  68:c:\program files\daisytoolchain\arm-none-eabi\include\c++\10.2.1\ext\new_allocator.h **** 	struct rebind
  69:c:\program files\daisytoolchain\arm-none-eabi\include\c++\10.2.1\ext\new_allocator.h **** 	{ typedef new_allocator<_Tp1> other; };
  70:c:\program files\daisytoolchain\arm-none-eabi\include\c++\10.2.1\ext\new_allocator.h **** #endif
  71:c:\program files\daisytoolchain\arm-none-eabi\include\c++\10.2.1\ext\new_allocator.h **** 
  72:c:\program files\daisytoolchain\arm-none-eabi\include\c++\10.2.1\ext\new_allocator.h **** #if __cplusplus >= 201103L
  73:c:\program files\daisytoolchain\arm-none-eabi\include\c++\10.2.1\ext\new_allocator.h ****       // _GLIBCXX_RESOLVE_LIB_DEFECTS
  74:c:\program files\daisytoolchain\arm-none-eabi\include\c++\10.2.1\ext\new_allocator.h ****       // 2103. propagate_on_container_move_assignment
  75:c:\program files\daisytoolchain\arm-none-eabi\include\c++\10.2.1\ext\new_allocator.h ****       typedef std::true_type propagate_on_container_move_assignment;
  76:c:\program files\daisytoolchain\arm-none-eabi\include\c++\10.2.1\ext\new_allocator.h **** #endif
  77:c:\program files\daisytoolchain\arm-none-eabi\include\c++\10.2.1\ext\new_allocator.h **** 
  78:c:\program files\daisytoolchain\arm-none-eabi\include\c++\10.2.1\ext\new_allocator.h ****       _GLIBCXX20_CONSTEXPR
  79:c:\program files\daisytoolchain\arm-none-eabi\include\c++\10.2.1\ext\new_allocator.h ****       new_allocator() _GLIBCXX_USE_NOEXCEPT { }
 688              		.loc 8 79 7 view .LVU146
 689              		.loc 8 79 7 is_stmt 0 view .LVU147
 690              	.LBE724:
 691              	.LBE723:
 692              	.LBB725:
 693              	.LBI681:
 393:c:\program files\daisytoolchain\arm-none-eabi\include\c++\10.2.1\bits\basic_string.h ****       { _S_copy(__p, __k1, __k2 - __k1); }
 394:c:\program files\daisytoolchain\arm-none-eabi\include\c++\10.2.1\bits\basic_string.h **** 
 395:c:\program files\daisytoolchain\arm-none-eabi\include\c++\10.2.1\bits\basic_string.h ****       static void
 396:c:\program files\daisytoolchain\arm-none-eabi\include\c++\10.2.1\bits\basic_string.h ****       _S_copy_chars(_CharT* __p, const _CharT* __k1, const _CharT* __k2)
 397:c:\program files\daisytoolchain\arm-none-eabi\include\c++\10.2.1\bits\basic_string.h ****       _GLIBCXX_NOEXCEPT
 398:c:\program files\daisytoolchain\arm-none-eabi\include\c++\10.2.1\bits\basic_string.h ****       { _S_copy(__p, __k1, __k2 - __k1); }
 399:c:\program files\daisytoolchain\arm-none-eabi\include\c++\10.2.1\bits\basic_string.h **** 
 400:c:\program files\daisytoolchain\arm-none-eabi\include\c++\10.2.1\bits\basic_string.h ****       static int
ARM GAS  C:\Users\ryota\AppData\Local\Temp\ccNuOPtY.s 			page 46


 401:c:\program files\daisytoolchain\arm-none-eabi\include\c++\10.2.1\bits\basic_string.h ****       _S_compare(size_type __n1, size_type __n2) _GLIBCXX_NOEXCEPT
 402:c:\program files\daisytoolchain\arm-none-eabi\include\c++\10.2.1\bits\basic_string.h ****       {
 403:c:\program files\daisytoolchain\arm-none-eabi\include\c++\10.2.1\bits\basic_string.h **** 	const difference_type __d = difference_type(__n1 - __n2);
 404:c:\program files\daisytoolchain\arm-none-eabi\include\c++\10.2.1\bits\basic_string.h **** 
 405:c:\program files\daisytoolchain\arm-none-eabi\include\c++\10.2.1\bits\basic_string.h **** 	if (__d > __gnu_cxx::__numeric_traits<int>::__max)
 406:c:\program files\daisytoolchain\arm-none-eabi\include\c++\10.2.1\bits\basic_string.h **** 	  return __gnu_cxx::__numeric_traits<int>::__max;
 407:c:\program files\daisytoolchain\arm-none-eabi\include\c++\10.2.1\bits\basic_string.h **** 	else if (__d < __gnu_cxx::__numeric_traits<int>::__min)
 408:c:\program files\daisytoolchain\arm-none-eabi\include\c++\10.2.1\bits\basic_string.h **** 	  return __gnu_cxx::__numeric_traits<int>::__min;
 409:c:\program files\daisytoolchain\arm-none-eabi\include\c++\10.2.1\bits\basic_string.h **** 	else
 410:c:\program files\daisytoolchain\arm-none-eabi\include\c++\10.2.1\bits\basic_string.h **** 	  return int(__d);
 411:c:\program files\daisytoolchain\arm-none-eabi\include\c++\10.2.1\bits\basic_string.h ****       }
 412:c:\program files\daisytoolchain\arm-none-eabi\include\c++\10.2.1\bits\basic_string.h **** 
 413:c:\program files\daisytoolchain\arm-none-eabi\include\c++\10.2.1\bits\basic_string.h ****       void
 414:c:\program files\daisytoolchain\arm-none-eabi\include\c++\10.2.1\bits\basic_string.h ****       _M_assign(const basic_string&);
 415:c:\program files\daisytoolchain\arm-none-eabi\include\c++\10.2.1\bits\basic_string.h **** 
 416:c:\program files\daisytoolchain\arm-none-eabi\include\c++\10.2.1\bits\basic_string.h ****       void
 417:c:\program files\daisytoolchain\arm-none-eabi\include\c++\10.2.1\bits\basic_string.h ****       _M_mutate(size_type __pos, size_type __len1, const _CharT* __s,
 418:c:\program files\daisytoolchain\arm-none-eabi\include\c++\10.2.1\bits\basic_string.h **** 		size_type __len2);
 419:c:\program files\daisytoolchain\arm-none-eabi\include\c++\10.2.1\bits\basic_string.h **** 
 420:c:\program files\daisytoolchain\arm-none-eabi\include\c++\10.2.1\bits\basic_string.h ****       void
 421:c:\program files\daisytoolchain\arm-none-eabi\include\c++\10.2.1\bits\basic_string.h ****       _M_erase(size_type __pos, size_type __n);
 422:c:\program files\daisytoolchain\arm-none-eabi\include\c++\10.2.1\bits\basic_string.h **** 
 423:c:\program files\daisytoolchain\arm-none-eabi\include\c++\10.2.1\bits\basic_string.h ****     public:
 424:c:\program files\daisytoolchain\arm-none-eabi\include\c++\10.2.1\bits\basic_string.h ****       // Construct/copy/destroy:
 425:c:\program files\daisytoolchain\arm-none-eabi\include\c++\10.2.1\bits\basic_string.h ****       // NB: We overload ctors in some cases instead of using default
 426:c:\program files\daisytoolchain\arm-none-eabi\include\c++\10.2.1\bits\basic_string.h ****       // arguments, per 17.4.4.4 para. 2 item 2.
 427:c:\program files\daisytoolchain\arm-none-eabi\include\c++\10.2.1\bits\basic_string.h **** 
 428:c:\program files\daisytoolchain\arm-none-eabi\include\c++\10.2.1\bits\basic_string.h ****       /**
 429:c:\program files\daisytoolchain\arm-none-eabi\include\c++\10.2.1\bits\basic_string.h ****        *  @brief  Default constructor creates an empty string.
 430:c:\program files\daisytoolchain\arm-none-eabi\include\c++\10.2.1\bits\basic_string.h ****        */
 431:c:\program files\daisytoolchain\arm-none-eabi\include\c++\10.2.1\bits\basic_string.h ****       basic_string()
 432:c:\program files\daisytoolchain\arm-none-eabi\include\c++\10.2.1\bits\basic_string.h ****       _GLIBCXX_NOEXCEPT_IF(is_nothrow_default_constructible<_Alloc>::value)
 433:c:\program files\daisytoolchain\arm-none-eabi\include\c++\10.2.1\bits\basic_string.h ****       : _M_dataplus(_M_local_data())
 434:c:\program files\daisytoolchain\arm-none-eabi\include\c++\10.2.1\bits\basic_string.h ****       { _M_set_length(0); }
 435:c:\program files\daisytoolchain\arm-none-eabi\include\c++\10.2.1\bits\basic_string.h **** 
 436:c:\program files\daisytoolchain\arm-none-eabi\include\c++\10.2.1\bits\basic_string.h ****       /**
 437:c:\program files\daisytoolchain\arm-none-eabi\include\c++\10.2.1\bits\basic_string.h ****        *  @brief  Construct an empty string using allocator @a a.
 438:c:\program files\daisytoolchain\arm-none-eabi\include\c++\10.2.1\bits\basic_string.h ****        */
 439:c:\program files\daisytoolchain\arm-none-eabi\include\c++\10.2.1\bits\basic_string.h ****       explicit
 440:c:\program files\daisytoolchain\arm-none-eabi\include\c++\10.2.1\bits\basic_string.h ****       basic_string(const _Alloc& __a) _GLIBCXX_NOEXCEPT
 441:c:\program files\daisytoolchain\arm-none-eabi\include\c++\10.2.1\bits\basic_string.h ****       : _M_dataplus(_M_local_data(), __a)
 442:c:\program files\daisytoolchain\arm-none-eabi\include\c++\10.2.1\bits\basic_string.h ****       { _M_set_length(0); }
 443:c:\program files\daisytoolchain\arm-none-eabi\include\c++\10.2.1\bits\basic_string.h **** 
 444:c:\program files\daisytoolchain\arm-none-eabi\include\c++\10.2.1\bits\basic_string.h ****       /**
 445:c:\program files\daisytoolchain\arm-none-eabi\include\c++\10.2.1\bits\basic_string.h ****        *  @brief  Construct string with copy of value of @a __str.
 446:c:\program files\daisytoolchain\arm-none-eabi\include\c++\10.2.1\bits\basic_string.h ****        *  @param  __str  Source string.
 447:c:\program files\daisytoolchain\arm-none-eabi\include\c++\10.2.1\bits\basic_string.h ****        */
 448:c:\program files\daisytoolchain\arm-none-eabi\include\c++\10.2.1\bits\basic_string.h ****       basic_string(const basic_string& __str)
 449:c:\program files\daisytoolchain\arm-none-eabi\include\c++\10.2.1\bits\basic_string.h ****       : _M_dataplus(_M_local_data(),
 450:c:\program files\daisytoolchain\arm-none-eabi\include\c++\10.2.1\bits\basic_string.h **** 		    _Alloc_traits::_S_select_on_copy(__str._M_get_allocator()))
 451:c:\program files\daisytoolchain\arm-none-eabi\include\c++\10.2.1\bits\basic_string.h ****       { _M_construct(__str._M_data(), __str._M_data() + __str.length()); }
 452:c:\program files\daisytoolchain\arm-none-eabi\include\c++\10.2.1\bits\basic_string.h **** 
 453:c:\program files\daisytoolchain\arm-none-eabi\include\c++\10.2.1\bits\basic_string.h ****       // _GLIBCXX_RESOLVE_LIB_DEFECTS
 454:c:\program files\daisytoolchain\arm-none-eabi\include\c++\10.2.1\bits\basic_string.h ****       // 2583. no way to supply an allocator for basic_string(str, pos)
 455:c:\program files\daisytoolchain\arm-none-eabi\include\c++\10.2.1\bits\basic_string.h ****       /**
 456:c:\program files\daisytoolchain\arm-none-eabi\include\c++\10.2.1\bits\basic_string.h ****        *  @brief  Construct string as copy of a substring.
 457:c:\program files\daisytoolchain\arm-none-eabi\include\c++\10.2.1\bits\basic_string.h ****        *  @param  __str  Source string.
ARM GAS  C:\Users\ryota\AppData\Local\Temp\ccNuOPtY.s 			page 47


 458:c:\program files\daisytoolchain\arm-none-eabi\include\c++\10.2.1\bits\basic_string.h ****        *  @param  __pos  Index of first character to copy from.
 459:c:\program files\daisytoolchain\arm-none-eabi\include\c++\10.2.1\bits\basic_string.h ****        *  @param  __a  Allocator to use.
 460:c:\program files\daisytoolchain\arm-none-eabi\include\c++\10.2.1\bits\basic_string.h ****        */
 461:c:\program files\daisytoolchain\arm-none-eabi\include\c++\10.2.1\bits\basic_string.h ****       basic_string(const basic_string& __str, size_type __pos,
 462:c:\program files\daisytoolchain\arm-none-eabi\include\c++\10.2.1\bits\basic_string.h **** 		   const _Alloc& __a = _Alloc())
